

Microchip MPLAB XC8 Assembler V2.45 build 20230818022343 
                                                                                               Sat Nov 04 10:45:54 2023

Microchip MPLAB XC8 C Compiler v2.45 (Free license) build 20230818022343 Og1 
     1                           	processor	16F18346
     2                           	pagewidth 120
     3                           	opt	flic
     4                           	psect	stringtext1,global,class=STRCODE,delta=2,noexec
     5                           	psect	stringtext2,global,class=STRCODE,delta=2,noexec
     6                           	psect	cinit,global,class=CODE,merge=1,delta=2
     7                           	psect	bssBANK0,global,class=BANK0,space=1,delta=1,noexec
     8                           	psect	clrtext,global,class=CODE,delta=2
     9                           	psect	cstackCOMMON,global,class=COMMON,space=1,delta=1,noexec
    10                           	psect	cstackBANK0,global,class=BANK0,space=1,delta=1,noexec
    11                           	psect	maintext,global,class=CODE,merge=1,split=1,delta=2
    12                           	psect	text1,local,class=CODE,merge=1,delta=2,group=3
    13                           	psect	text2,local,class=CODE,merge=1,delta=2,group=1
    14                           	psect	text3,local,class=CODE,merge=1,delta=2,group=1
    15                           	psect	text4,local,class=CODE,merge=1,delta=2,group=3
    16                           	psect	text5,local,class=CODE,merge=1,delta=2
    17                           	psect	text6,local,class=CODE,merge=1,delta=2
    18                           	psect	text7,local,class=CODE,merge=1,delta=2
    19                           	psect	text8,local,class=CODE,merge=1,delta=2
    20                           	psect	text9,local,class=CODE,merge=1,delta=2
    21                           	psect	text10,local,class=CODE,merge=1,delta=2
    22                           	psect	text11,local,class=CODE,merge=1,delta=2
    23                           	psect	text12,local,class=CODE,merge=1,delta=2
    24                           	psect	text13,local,class=CODE,merge=1,delta=2
    25                           	psect	text14,local,class=CODE,merge=1,delta=2
    26                           	psect	text15,local,class=CODE,merge=1,delta=2
    27                           	psect	intentry,global,class=CODE,delta=2
    28                           	psect	text17,local,class=CODE,merge=1,delta=2
    29                           	psect	config,global,abs,ovrld,class=CONFIG,space=4,delta=2,noexec
    30                           	dabs	1,0x7E,2
    31     0000                     
    32                           ; Generated 21/06/2023 GMT
    33                           ; 
    34                           ; Copyright © 2023, Microchip Technology Inc. and its subsidiaries ("Microchip")
    35                           ; All rights reserved.
    36                           ; 
    37                           ; This software is developed by Microchip Technology Inc. and its subsidiaries ("Microch
      +                          ip").
    38                           ; 
    39                           ; Redistribution and use in source and binary forms, with or without modification, are
    40                           ; permitted provided that the following conditions are met:
    41                           ; 
    42                           ;     1. Redistributions of source code must retain the above copyright notice, this lis
      +                          t of
    43                           ;        conditions and the following disclaimer.
    44                           ; 
    45                           ;     2. Redistributions in binary form must reproduce the above copyright notice, this 
      +                          list
    46                           ;        of conditions and the following disclaimer in the documentation and/or other
    47                           ;        materials provided with the distribution. Publication is not required when
    48                           ;        this file is used in an embedded application.
    49                           ; 
    50                           ;     3. Microchip's name may not be used to endorse or promote products derived from th
      +                          is
    51                           ;        software without specific prior written permission.
    52                           ; 
    53                           ; THIS SOFTWARE IS PROVIDED BY MICROCHIP "AS IS" AND ANY EXPRESS OR IMPLIED WARRANTIES,
    54                           ; INCLUDING, BUT NOT LIMITED TO, THE IMPLIED WARRANTIES OF MERCHANTABILITY AND FITNESS F
      +                          OR
    55                           ; PURPOSE ARE DISCLAIMED.  IN NO EVENT SHALL MICROCHIP BE LIABLE FOR ANY DIRECT, INDIREC
      +                          T,
    56                           ; INCIDENTAL, SPECIAL, EXEMPLARY, OR CONSEQUENTIAL DAMAGES (INCLUDING BUT NOT LIMITED TO
    57                           ; PROCUREMENT OF SUBSTITUTE GOODS OR SERVICES; LOSS OF USE, DATA OR PROFITS; OR BUSINESS
    58                           ; INTERRUPTION) HOWSOEVER CAUSED AND ON ANY THEORY OF LIABILITY, WHETHER IN CONTRACT, ST
      +                          RICT
    59                           ; LIABILITY, OR TORT (INCLUDING NEGLIGENCE OR OTHERWISE) ARISING IN ANY WAY OUT OF THE U
      +                          SE OF
    60                           ; THIS SOFTWARE, EVEN IF ADVISED OF THE POSSIBILITY OF SUCH DAMAGE.
    61                           ; 
    62                           ; 
    63                           ; Code-generator required, PIC16F18346 Definitions
    64                           ; 
    65                           ; SFR Addresses
    66     0000                     	;# 
    67     0001                     	;# 
    68     0002                     	;# 
    69     0003                     	;# 
    70     0004                     	;# 
    71     0005                     	;# 
    72     0006                     	;# 
    73     0007                     	;# 
    74     0008                     	;# 
    75     0009                     	;# 
    76     000A                     	;# 
    77     000B                     	;# 
    78     000C                     	;# 
    79     000D                     	;# 
    80     000E                     	;# 
    81     0010                     	;# 
    82     0011                     	;# 
    83     0012                     	;# 
    84     0013                     	;# 
    85     0014                     	;# 
    86     0015                     	;# 
    87     0015                     	;# 
    88     0016                     	;# 
    89     0016                     	;# 
    90     0017                     	;# 
    91     0018                     	;# 
    92     0019                     	;# 
    93     0019                     	;# 
    94     001A                     	;# 
    95     001B                     	;# 
    96     001C                     	;# 
    97     001D                     	;# 
    98     001E                     	;# 
    99     001F                     	;# 
   100     008C                     	;# 
   101     008D                     	;# 
   102     008E                     	;# 
   103     0090                     	;# 
   104     0091                     	;# 
   105     0092                     	;# 
   106     0093                     	;# 
   107     0094                     	;# 
   108     0097                     	;# 
   109     009B                     	;# 
   110     009B                     	;# 
   111     009C                     	;# 
   112     009D                     	;# 
   113     009E                     	;# 
   114     009F                     	;# 
   115     010C                     	;# 
   116     010D                     	;# 
   117     010E                     	;# 
   118     0111                     	;# 
   119     0112                     	;# 
   120     0113                     	;# 
   121     0114                     	;# 
   122     0115                     	;# 
   123     0116                     	;# 
   124     0117                     	;# 
   125     0118                     	;# 
   126     0119                     	;# 
   127     018C                     	;# 
   128     018D                     	;# 
   129     018E                     	;# 
   130     0197                     	;# 
   131     0199                     	;# 
   132     0199                     	;# 
   133     0199                     	;# 
   134     019A                     	;# 
   135     019A                     	;# 
   136     019A                     	;# 
   137     019B                     	;# 
   138     019B                     	;# 
   139     019B                     	;# 
   140     019B                     	;# 
   141     019B                     	;# 
   142     019C                     	;# 
   143     019C                     	;# 
   144     019C                     	;# 
   145     019D                     	;# 
   146     019D                     	;# 
   147     019D                     	;# 
   148     019E                     	;# 
   149     019E                     	;# 
   150     019E                     	;# 
   151     019F                     	;# 
   152     019F                     	;# 
   153     019F                     	;# 
   154     019F                     	;# 
   155     019F                     	;# 
   156     020C                     	;# 
   157     020D                     	;# 
   158     020E                     	;# 
   159     0211                     	;# 
   160     0211                     	;# 
   161     0212                     	;# 
   162     0212                     	;# 
   163     0213                     	;# 
   164     0213                     	;# 
   165     0214                     	;# 
   166     0214                     	;# 
   167     0215                     	;# 
   168     0215                     	;# 
   169     0215                     	;# 
   170     0215                     	;# 
   171     0216                     	;# 
   172     0216                     	;# 
   173     0217                     	;# 
   174     0217                     	;# 
   175     0219                     	;# 
   176     021A                     	;# 
   177     021B                     	;# 
   178     021C                     	;# 
   179     021D                     	;# 
   180     021D                     	;# 
   181     021E                     	;# 
   182     021F                     	;# 
   183     028C                     	;# 
   184     028D                     	;# 
   185     028E                     	;# 
   186     0291                     	;# 
   187     0291                     	;# 
   188     0292                     	;# 
   189     0293                     	;# 
   190     0294                     	;# 
   191     0295                     	;# 
   192     0295                     	;# 
   193     0296                     	;# 
   194     0297                     	;# 
   195     0298                     	;# 
   196     029F                     	;# 
   197     030C                     	;# 
   198     030D                     	;# 
   199     030E                     	;# 
   200     0311                     	;# 
   201     0311                     	;# 
   202     0312                     	;# 
   203     0313                     	;# 
   204     0314                     	;# 
   205     0315                     	;# 
   206     0315                     	;# 
   207     0316                     	;# 
   208     0317                     	;# 
   209     0318                     	;# 
   210     038C                     	;# 
   211     038D                     	;# 
   212     038E                     	;# 
   213     0391                     	;# 
   214     0392                     	;# 
   215     0393                     	;# 
   216     0394                     	;# 
   217     0395                     	;# 
   218     0396                     	;# 
   219     0397                     	;# 
   220     0398                     	;# 
   221     0399                     	;# 
   222     039A                     	;# 
   223     039C                     	;# 
   224     039D                     	;# 
   225     039E                     	;# 
   226     039F                     	;# 
   227     0411                     	;# 
   228     0411                     	;# 
   229     0412                     	;# 
   230     0413                     	;# 
   231     0414                     	;# 
   232     0415                     	;# 
   233     0416                     	;# 
   234     0417                     	;# 
   235     0418                     	;# 
   236     0418                     	;# 
   237     0419                     	;# 
   238     041A                     	;# 
   239     041B                     	;# 
   240     041C                     	;# 
   241     041D                     	;# 
   242     041E                     	;# 
   243     041F                     	;# 
   244     0498                     	;# 
   245     0498                     	;# 
   246     0499                     	;# 
   247     049A                     	;# 
   248     049B                     	;# 
   249     049B                     	;# 
   250     049C                     	;# 
   251     049D                     	;# 
   252     049E                     	;# 
   253     049F                     	;# 
   254     0617                     	;# 
   255     0618                     	;# 
   256     0619                     	;# 
   257     0619                     	;# 
   258     061A                     	;# 
   259     061B                     	;# 
   260     061C                     	;# 
   261     061C                     	;# 
   262     061F                     	;# 
   263     0691                     	;# 
   264     0692                     	;# 
   265     0693                     	;# 
   266     0694                     	;# 
   267     0695                     	;# 
   268     0696                     	;# 
   269     0697                     	;# 
   270     0698                     	;# 
   271     0699                     	;# 
   272     0711                     	;# 
   273     0712                     	;# 
   274     0713                     	;# 
   275     0714                     	;# 
   276     0715                     	;# 
   277     0716                     	;# 
   278     0717                     	;# 
   279     0718                     	;# 
   280     0719                     	;# 
   281     0891                     	;# 
   282     0891                     	;# 
   283     0891                     	;# 
   284     0891                     	;# 
   285     0891                     	;# 
   286     0891                     	;# 
   287     0892                     	;# 
   288     0892                     	;# 
   289     0892                     	;# 
   290     0893                     	;# 
   291     0893                     	;# 
   292     0893                     	;# 
   293     0893                     	;# 
   294     0893                     	;# 
   295     0893                     	;# 
   296     0894                     	;# 
   297     0894                     	;# 
   298     0894                     	;# 
   299     0895                     	;# 
   300     0895                     	;# 
   301     0895                     	;# 
   302     0896                     	;# 
   303     0896                     	;# 
   304     0896                     	;# 
   305     089B                     	;# 
   306     0911                     	;# 
   307     0912                     	;# 
   308     0913                     	;# 
   309     0914                     	;# 
   310     0915                     	;# 
   311     0916                     	;# 
   312     0918                     	;# 
   313     0919                     	;# 
   314     091A                     	;# 
   315     091B                     	;# 
   316     091C                     	;# 
   317     091D                     	;# 
   318     091E                     	;# 
   319     091F                     	;# 
   320     0E0F                     	;# 
   321     0E10                     	;# 
   322     0E11                     	;# 
   323     0E12                     	;# 
   324     0E13                     	;# 
   325     0E14                     	;# 
   326     0E15                     	;# 
   327     0E16                     	;# 
   328     0E17                     	;# 
   329     0E18                     	;# 
   330     0E19                     	;# 
   331     0E1A                     	;# 
   332     0E1B                     	;# 
   333     0E1C                     	;# 
   334     0E1D                     	;# 
   335     0E1E                     	;# 
   336     0E1F                     	;# 
   337     0E20                     	;# 
   338     0E21                     	;# 
   339     0E22                     	;# 
   340     0E24                     	;# 
   341     0E25                     	;# 
   342     0E28                     	;# 
   343     0E29                     	;# 
   344     0E2A                     	;# 
   345     0E2B                     	;# 
   346     0E2C                     	;# 
   347     0E2D                     	;# 
   348     0E2E                     	;# 
   349     0E2F                     	;# 
   350     0E90                     	;# 
   351     0E91                     	;# 
   352     0E92                     	;# 
   353     0E94                     	;# 
   354     0E95                     	;# 
   355     0E9C                     	;# 
   356     0E9D                     	;# 
   357     0E9E                     	;# 
   358     0E9F                     	;# 
   359     0EA0                     	;# 
   360     0EA1                     	;# 
   361     0EA2                     	;# 
   362     0EA3                     	;# 
   363     0EA4                     	;# 
   364     0EA5                     	;# 
   365     0EA6                     	;# 
   366     0EA7                     	;# 
   367     0F0F                     	;# 
   368     0F10                     	;# 
   369     0F11                     	;# 
   370     0F12                     	;# 
   371     0F13                     	;# 
   372     0F14                     	;# 
   373     0F15                     	;# 
   374     0F16                     	;# 
   375     0F17                     	;# 
   376     0F18                     	;# 
   377     0F19                     	;# 
   378     0F1A                     	;# 
   379     0F1B                     	;# 
   380     0F1C                     	;# 
   381     0F1D                     	;# 
   382     0F1E                     	;# 
   383     0F1F                     	;# 
   384     0F20                     	;# 
   385     0F21                     	;# 
   386     0F22                     	;# 
   387     0F23                     	;# 
   388     0F24                     	;# 
   389     0F25                     	;# 
   390     0F26                     	;# 
   391     0F27                     	;# 
   392     0F28                     	;# 
   393     0F29                     	;# 
   394     0F2A                     	;# 
   395     0F2B                     	;# 
   396     0F2C                     	;# 
   397     0F2D                     	;# 
   398     0F2E                     	;# 
   399     0F2F                     	;# 
   400     0F30                     	;# 
   401     0F31                     	;# 
   402     0F32                     	;# 
   403     0F33                     	;# 
   404     0F34                     	;# 
   405     0F35                     	;# 
   406     0F36                     	;# 
   407     0F37                     	;# 
   408     0FE4                     	;# 
   409     0FE5                     	;# 
   410     0FE6                     	;# 
   411     0FE7                     	;# 
   412     0FE8                     	;# 
   413     0FE9                     	;# 
   414     0FEA                     	;# 
   415     0FEB                     	;# 
   416     0FED                     	;# 
   417     0FEE                     	;# 
   418     0FEF                     	;# 
   419     0000                     	;# 
   420     0001                     	;# 
   421     0002                     	;# 
   422     0003                     	;# 
   423     0004                     	;# 
   424     0005                     	;# 
   425     0006                     	;# 
   426     0007                     	;# 
   427     0008                     	;# 
   428     0009                     	;# 
   429     000A                     	;# 
   430     000B                     	;# 
   431     000C                     	;# 
   432     000D                     	;# 
   433     000E                     	;# 
   434     0010                     	;# 
   435     0011                     	;# 
   436     0012                     	;# 
   437     0013                     	;# 
   438     0014                     	;# 
   439     0015                     	;# 
   440     0015                     	;# 
   441     0016                     	;# 
   442     0016                     	;# 
   443     0017                     	;# 
   444     0018                     	;# 
   445     0019                     	;# 
   446     0019                     	;# 
   447     001A                     	;# 
   448     001B                     	;# 
   449     001C                     	;# 
   450     001D                     	;# 
   451     001E                     	;# 
   452     001F                     	;# 
   453     008C                     	;# 
   454     008D                     	;# 
   455     008E                     	;# 
   456     0090                     	;# 
   457     0091                     	;# 
   458     0092                     	;# 
   459     0093                     	;# 
   460     0094                     	;# 
   461     0097                     	;# 
   462     009B                     	;# 
   463     009B                     	;# 
   464     009C                     	;# 
   465     009D                     	;# 
   466     009E                     	;# 
   467     009F                     	;# 
   468     010C                     	;# 
   469     010D                     	;# 
   470     010E                     	;# 
   471     0111                     	;# 
   472     0112                     	;# 
   473     0113                     	;# 
   474     0114                     	;# 
   475     0115                     	;# 
   476     0116                     	;# 
   477     0117                     	;# 
   478     0118                     	;# 
   479     0119                     	;# 
   480     018C                     	;# 
   481     018D                     	;# 
   482     018E                     	;# 
   483     0197                     	;# 
   484     0199                     	;# 
   485     0199                     	;# 
   486     0199                     	;# 
   487     019A                     	;# 
   488     019A                     	;# 
   489     019A                     	;# 
   490     019B                     	;# 
   491     019B                     	;# 
   492     019B                     	;# 
   493     019B                     	;# 
   494     019B                     	;# 
   495     019C                     	;# 
   496     019C                     	;# 
   497     019C                     	;# 
   498     019D                     	;# 
   499     019D                     	;# 
   500     019D                     	;# 
   501     019E                     	;# 
   502     019E                     	;# 
   503     019E                     	;# 
   504     019F                     	;# 
   505     019F                     	;# 
   506     019F                     	;# 
   507     019F                     	;# 
   508     019F                     	;# 
   509     020C                     	;# 
   510     020D                     	;# 
   511     020E                     	;# 
   512     0211                     	;# 
   513     0211                     	;# 
   514     0212                     	;# 
   515     0212                     	;# 
   516     0213                     	;# 
   517     0213                     	;# 
   518     0214                     	;# 
   519     0214                     	;# 
   520     0215                     	;# 
   521     0215                     	;# 
   522     0215                     	;# 
   523     0215                     	;# 
   524     0216                     	;# 
   525     0216                     	;# 
   526     0217                     	;# 
   527     0217                     	;# 
   528     0219                     	;# 
   529     021A                     	;# 
   530     021B                     	;# 
   531     021C                     	;# 
   532     021D                     	;# 
   533     021D                     	;# 
   534     021E                     	;# 
   535     021F                     	;# 
   536     028C                     	;# 
   537     028D                     	;# 
   538     028E                     	;# 
   539     0291                     	;# 
   540     0291                     	;# 
   541     0292                     	;# 
   542     0293                     	;# 
   543     0294                     	;# 
   544     0295                     	;# 
   545     0295                     	;# 
   546     0296                     	;# 
   547     0297                     	;# 
   548     0298                     	;# 
   549     029F                     	;# 
   550     030C                     	;# 
   551     030D                     	;# 
   552     030E                     	;# 
   553     0311                     	;# 
   554     0311                     	;# 
   555     0312                     	;# 
   556     0313                     	;# 
   557     0314                     	;# 
   558     0315                     	;# 
   559     0315                     	;# 
   560     0316                     	;# 
   561     0317                     	;# 
   562     0318                     	;# 
   563     038C                     	;# 
   564     038D                     	;# 
   565     038E                     	;# 
   566     0391                     	;# 
   567     0392                     	;# 
   568     0393                     	;# 
   569     0394                     	;# 
   570     0395                     	;# 
   571     0396                     	;# 
   572     0397                     	;# 
   573     0398                     	;# 
   574     0399                     	;# 
   575     039A                     	;# 
   576     039C                     	;# 
   577     039D                     	;# 
   578     039E                     	;# 
   579     039F                     	;# 
   580     0411                     	;# 
   581     0411                     	;# 
   582     0412                     	;# 
   583     0413                     	;# 
   584     0414                     	;# 
   585     0415                     	;# 
   586     0416                     	;# 
   587     0417                     	;# 
   588     0418                     	;# 
   589     0418                     	;# 
   590     0419                     	;# 
   591     041A                     	;# 
   592     041B                     	;# 
   593     041C                     	;# 
   594     041D                     	;# 
   595     041E                     	;# 
   596     041F                     	;# 
   597     0498                     	;# 
   598     0498                     	;# 
   599     0499                     	;# 
   600     049A                     	;# 
   601     049B                     	;# 
   602     049B                     	;# 
   603     049C                     	;# 
   604     049D                     	;# 
   605     049E                     	;# 
   606     049F                     	;# 
   607     0617                     	;# 
   608     0618                     	;# 
   609     0619                     	;# 
   610     0619                     	;# 
   611     061A                     	;# 
   612     061B                     	;# 
   613     061C                     	;# 
   614     061C                     	;# 
   615     061F                     	;# 
   616     0691                     	;# 
   617     0692                     	;# 
   618     0693                     	;# 
   619     0694                     	;# 
   620     0695                     	;# 
   621     0696                     	;# 
   622     0697                     	;# 
   623     0698                     	;# 
   624     0699                     	;# 
   625     0711                     	;# 
   626     0712                     	;# 
   627     0713                     	;# 
   628     0714                     	;# 
   629     0715                     	;# 
   630     0716                     	;# 
   631     0717                     	;# 
   632     0718                     	;# 
   633     0719                     	;# 
   634     0891                     	;# 
   635     0891                     	;# 
   636     0891                     	;# 
   637     0891                     	;# 
   638     0891                     	;# 
   639     0891                     	;# 
   640     0892                     	;# 
   641     0892                     	;# 
   642     0892                     	;# 
   643     0893                     	;# 
   644     0893                     	;# 
   645     0893                     	;# 
   646     0893                     	;# 
   647     0893                     	;# 
   648     0893                     	;# 
   649     0894                     	;# 
   650     0894                     	;# 
   651     0894                     	;# 
   652     0895                     	;# 
   653     0895                     	;# 
   654     0895                     	;# 
   655     0896                     	;# 
   656     0896                     	;# 
   657     0896                     	;# 
   658     089B                     	;# 
   659     0911                     	;# 
   660     0912                     	;# 
   661     0913                     	;# 
   662     0914                     	;# 
   663     0915                     	;# 
   664     0916                     	;# 
   665     0918                     	;# 
   666     0919                     	;# 
   667     091A                     	;# 
   668     091B                     	;# 
   669     091C                     	;# 
   670     091D                     	;# 
   671     091E                     	;# 
   672     091F                     	;# 
   673     0E0F                     	;# 
   674     0E10                     	;# 
   675     0E11                     	;# 
   676     0E12                     	;# 
   677     0E13                     	;# 
   678     0E14                     	;# 
   679     0E15                     	;# 
   680     0E16                     	;# 
   681     0E17                     	;# 
   682     0E18                     	;# 
   683     0E19                     	;# 
   684     0E1A                     	;# 
   685     0E1B                     	;# 
   686     0E1C                     	;# 
   687     0E1D                     	;# 
   688     0E1E                     	;# 
   689     0E1F                     	;# 
   690     0E20                     	;# 
   691     0E21                     	;# 
   692     0E22                     	;# 
   693     0E24                     	;# 
   694     0E25                     	;# 
   695     0E28                     	;# 
   696     0E29                     	;# 
   697     0E2A                     	;# 
   698     0E2B                     	;# 
   699     0E2C                     	;# 
   700     0E2D                     	;# 
   701     0E2E                     	;# 
   702     0E2F                     	;# 
   703     0E90                     	;# 
   704     0E91                     	;# 
   705     0E92                     	;# 
   706     0E94                     	;# 
   707     0E95                     	;# 
   708     0E9C                     	;# 
   709     0E9D                     	;# 
   710     0E9E                     	;# 
   711     0E9F                     	;# 
   712     0EA0                     	;# 
   713     0EA1                     	;# 
   714     0EA2                     	;# 
   715     0EA3                     	;# 
   716     0EA4                     	;# 
   717     0EA5                     	;# 
   718     0EA6                     	;# 
   719     0EA7                     	;# 
   720     0F0F                     	;# 
   721     0F10                     	;# 
   722     0F11                     	;# 
   723     0F12                     	;# 
   724     0F13                     	;# 
   725     0F14                     	;# 
   726     0F15                     	;# 
   727     0F16                     	;# 
   728     0F17                     	;# 
   729     0F18                     	;# 
   730     0F19                     	;# 
   731     0F1A                     	;# 
   732     0F1B                     	;# 
   733     0F1C                     	;# 
   734     0F1D                     	;# 
   735     0F1E                     	;# 
   736     0F1F                     	;# 
   737     0F20                     	;# 
   738     0F21                     	;# 
   739     0F22                     	;# 
   740     0F23                     	;# 
   741     0F24                     	;# 
   742     0F25                     	;# 
   743     0F26                     	;# 
   744     0F27                     	;# 
   745     0F28                     	;# 
   746     0F29                     	;# 
   747     0F2A                     	;# 
   748     0F2B                     	;# 
   749     0F2C                     	;# 
   750     0F2D                     	;# 
   751     0F2E                     	;# 
   752     0F2F                     	;# 
   753     0F30                     	;# 
   754     0F31                     	;# 
   755     0F32                     	;# 
   756     0F33                     	;# 
   757     0F34                     	;# 
   758     0F35                     	;# 
   759     0F36                     	;# 
   760     0F37                     	;# 
   761     0FE4                     	;# 
   762     0FE5                     	;# 
   763     0FE6                     	;# 
   764     0FE7                     	;# 
   765     0FE8                     	;# 
   766     0FE9                     	;# 
   767     0FEA                     	;# 
   768     0FEB                     	;# 
   769     0FED                     	;# 
   770     0FEE                     	;# 
   771     0FEF                     	;# 
   772     0000                     	;# 
   773     0001                     	;# 
   774     0002                     	;# 
   775     0003                     	;# 
   776     0004                     	;# 
   777     0005                     	;# 
   778     0006                     	;# 
   779     0007                     	;# 
   780     0008                     	;# 
   781     0009                     	;# 
   782     000A                     	;# 
   783     000B                     	;# 
   784     000C                     	;# 
   785     000D                     	;# 
   786     000E                     	;# 
   787     0010                     	;# 
   788     0011                     	;# 
   789     0012                     	;# 
   790     0013                     	;# 
   791     0014                     	;# 
   792     0015                     	;# 
   793     0015                     	;# 
   794     0016                     	;# 
   795     0016                     	;# 
   796     0017                     	;# 
   797     0018                     	;# 
   798     0019                     	;# 
   799     0019                     	;# 
   800     001A                     	;# 
   801     001B                     	;# 
   802     001C                     	;# 
   803     001D                     	;# 
   804     001E                     	;# 
   805     001F                     	;# 
   806     008C                     	;# 
   807     008D                     	;# 
   808     008E                     	;# 
   809     0090                     	;# 
   810     0091                     	;# 
   811     0092                     	;# 
   812     0093                     	;# 
   813     0094                     	;# 
   814     0097                     	;# 
   815     009B                     	;# 
   816     009B                     	;# 
   817     009C                     	;# 
   818     009D                     	;# 
   819     009E                     	;# 
   820     009F                     	;# 
   821     010C                     	;# 
   822     010D                     	;# 
   823     010E                     	;# 
   824     0111                     	;# 
   825     0112                     	;# 
   826     0113                     	;# 
   827     0114                     	;# 
   828     0115                     	;# 
   829     0116                     	;# 
   830     0117                     	;# 
   831     0118                     	;# 
   832     0119                     	;# 
   833     018C                     	;# 
   834     018D                     	;# 
   835     018E                     	;# 
   836     0197                     	;# 
   837     0199                     	;# 
   838     0199                     	;# 
   839     0199                     	;# 
   840     019A                     	;# 
   841     019A                     	;# 
   842     019A                     	;# 
   843     019B                     	;# 
   844     019B                     	;# 
   845     019B                     	;# 
   846     019B                     	;# 
   847     019B                     	;# 
   848     019C                     	;# 
   849     019C                     	;# 
   850     019C                     	;# 
   851     019D                     	;# 
   852     019D                     	;# 
   853     019D                     	;# 
   854     019E                     	;# 
   855     019E                     	;# 
   856     019E                     	;# 
   857     019F                     	;# 
   858     019F                     	;# 
   859     019F                     	;# 
   860     019F                     	;# 
   861     019F                     	;# 
   862     020C                     	;# 
   863     020D                     	;# 
   864     020E                     	;# 
   865     0211                     	;# 
   866     0211                     	;# 
   867     0212                     	;# 
   868     0212                     	;# 
   869     0213                     	;# 
   870     0213                     	;# 
   871     0214                     	;# 
   872     0214                     	;# 
   873     0215                     	;# 
   874     0215                     	;# 
   875     0215                     	;# 
   876     0215                     	;# 
   877     0216                     	;# 
   878     0216                     	;# 
   879     0217                     	;# 
   880     0217                     	;# 
   881     0219                     	;# 
   882     021A                     	;# 
   883     021B                     	;# 
   884     021C                     	;# 
   885     021D                     	;# 
   886     021D                     	;# 
   887     021E                     	;# 
   888     021F                     	;# 
   889     028C                     	;# 
   890     028D                     	;# 
   891     028E                     	;# 
   892     0291                     	;# 
   893     0291                     	;# 
   894     0292                     	;# 
   895     0293                     	;# 
   896     0294                     	;# 
   897     0295                     	;# 
   898     0295                     	;# 
   899     0296                     	;# 
   900     0297                     	;# 
   901     0298                     	;# 
   902     029F                     	;# 
   903     030C                     	;# 
   904     030D                     	;# 
   905     030E                     	;# 
   906     0311                     	;# 
   907     0311                     	;# 
   908     0312                     	;# 
   909     0313                     	;# 
   910     0314                     	;# 
   911     0315                     	;# 
   912     0315                     	;# 
   913     0316                     	;# 
   914     0317                     	;# 
   915     0318                     	;# 
   916     038C                     	;# 
   917     038D                     	;# 
   918     038E                     	;# 
   919     0391                     	;# 
   920     0392                     	;# 
   921     0393                     	;# 
   922     0394                     	;# 
   923     0395                     	;# 
   924     0396                     	;# 
   925     0397                     	;# 
   926     0398                     	;# 
   927     0399                     	;# 
   928     039A                     	;# 
   929     039C                     	;# 
   930     039D                     	;# 
   931     039E                     	;# 
   932     039F                     	;# 
   933     0411                     	;# 
   934     0411                     	;# 
   935     0412                     	;# 
   936     0413                     	;# 
   937     0414                     	;# 
   938     0415                     	;# 
   939     0416                     	;# 
   940     0417                     	;# 
   941     0418                     	;# 
   942     0418                     	;# 
   943     0419                     	;# 
   944     041A                     	;# 
   945     041B                     	;# 
   946     041C                     	;# 
   947     041D                     	;# 
   948     041E                     	;# 
   949     041F                     	;# 
   950     0498                     	;# 
   951     0498                     	;# 
   952     0499                     	;# 
   953     049A                     	;# 
   954     049B                     	;# 
   955     049B                     	;# 
   956     049C                     	;# 
   957     049D                     	;# 
   958     049E                     	;# 
   959     049F                     	;# 
   960     0617                     	;# 
   961     0618                     	;# 
   962     0619                     	;# 
   963     0619                     	;# 
   964     061A                     	;# 
   965     061B                     	;# 
   966     061C                     	;# 
   967     061C                     	;# 
   968     061F                     	;# 
   969     0691                     	;# 
   970     0692                     	;# 
   971     0693                     	;# 
   972     0694                     	;# 
   973     0695                     	;# 
   974     0696                     	;# 
   975     0697                     	;# 
   976     0698                     	;# 
   977     0699                     	;# 
   978     0711                     	;# 
   979     0712                     	;# 
   980     0713                     	;# 
   981     0714                     	;# 
   982     0715                     	;# 
   983     0716                     	;# 
   984     0717                     	;# 
   985     0718                     	;# 
   986     0719                     	;# 
   987     0891                     	;# 
   988     0891                     	;# 
   989     0891                     	;# 
   990     0891                     	;# 
   991     0891                     	;# 
   992     0891                     	;# 
   993     0892                     	;# 
   994     0892                     	;# 
   995     0892                     	;# 
   996     0893                     	;# 
   997     0893                     	;# 
   998     0893                     	;# 
   999     0893                     	;# 
  1000     0893                     	;# 
  1001     0893                     	;# 
  1002     0894                     	;# 
  1003     0894                     	;# 
  1004     0894                     	;# 
  1005     0895                     	;# 
  1006     0895                     	;# 
  1007     0895                     	;# 
  1008     0896                     	;# 
  1009     0896                     	;# 
  1010     0896                     	;# 
  1011     089B                     	;# 
  1012     0911                     	;# 
  1013     0912                     	;# 
  1014     0913                     	;# 
  1015     0914                     	;# 
  1016     0915                     	;# 
  1017     0916                     	;# 
  1018     0918                     	;# 
  1019     0919                     	;# 
  1020     091A                     	;# 
  1021     091B                     	;# 
  1022     091C                     	;# 
  1023     091D                     	;# 
  1024     091E                     	;# 
  1025     091F                     	;# 
  1026     0E0F                     	;# 
  1027     0E10                     	;# 
  1028     0E11                     	;# 
  1029     0E12                     	;# 
  1030     0E13                     	;# 
  1031     0E14                     	;# 
  1032     0E15                     	;# 
  1033     0E16                     	;# 
  1034     0E17                     	;# 
  1035     0E18                     	;# 
  1036     0E19                     	;# 
  1037     0E1A                     	;# 
  1038     0E1B                     	;# 
  1039     0E1C                     	;# 
  1040     0E1D                     	;# 
  1041     0E1E                     	;# 
  1042     0E1F                     	;# 
  1043     0E20                     	;# 
  1044     0E21                     	;# 
  1045     0E22                     	;# 
  1046     0E24                     	;# 
  1047     0E25                     	;# 
  1048     0E28                     	;# 
  1049     0E29                     	;# 
  1050     0E2A                     	;# 
  1051     0E2B                     	;# 
  1052     0E2C                     	;# 
  1053     0E2D                     	;# 
  1054     0E2E                     	;# 
  1055     0E2F                     	;# 
  1056     0E90                     	;# 
  1057     0E91                     	;# 
  1058     0E92                     	;# 
  1059     0E94                     	;# 
  1060     0E95                     	;# 
  1061     0E9C                     	;# 
  1062     0E9D                     	;# 
  1063     0E9E                     	;# 
  1064     0E9F                     	;# 
  1065     0EA0                     	;# 
  1066     0EA1                     	;# 
  1067     0EA2                     	;# 
  1068     0EA3                     	;# 
  1069     0EA4                     	;# 
  1070     0EA5                     	;# 
  1071     0EA6                     	;# 
  1072     0EA7                     	;# 
  1073     0F0F                     	;# 
  1074     0F10                     	;# 
  1075     0F11                     	;# 
  1076     0F12                     	;# 
  1077     0F13                     	;# 
  1078     0F14                     	;# 
  1079     0F15                     	;# 
  1080     0F16                     	;# 
  1081     0F17                     	;# 
  1082     0F18                     	;# 
  1083     0F19                     	;# 
  1084     0F1A                     	;# 
  1085     0F1B                     	;# 
  1086     0F1C                     	;# 
  1087     0F1D                     	;# 
  1088     0F1E                     	;# 
  1089     0F1F                     	;# 
  1090     0F20                     	;# 
  1091     0F21                     	;# 
  1092     0F22                     	;# 
  1093     0F23                     	;# 
  1094     0F24                     	;# 
  1095     0F25                     	;# 
  1096     0F26                     	;# 
  1097     0F27                     	;# 
  1098     0F28                     	;# 
  1099     0F29                     	;# 
  1100     0F2A                     	;# 
  1101     0F2B                     	;# 
  1102     0F2C                     	;# 
  1103     0F2D                     	;# 
  1104     0F2E                     	;# 
  1105     0F2F                     	;# 
  1106     0F30                     	;# 
  1107     0F31                     	;# 
  1108     0F32                     	;# 
  1109     0F33                     	;# 
  1110     0F34                     	;# 
  1111     0F35                     	;# 
  1112     0F36                     	;# 
  1113     0F37                     	;# 
  1114     0FE4                     	;# 
  1115     0FE5                     	;# 
  1116     0FE6                     	;# 
  1117     0FE7                     	;# 
  1118     0FE8                     	;# 
  1119     0FE9                     	;# 
  1120     0FEA                     	;# 
  1121     0FEB                     	;# 
  1122     0FED                     	;# 
  1123     0FEE                     	;# 
  1124     0FEF                     	;# 
  1125     0000                     	;# 
  1126     0001                     	;# 
  1127     0002                     	;# 
  1128     0003                     	;# 
  1129     0004                     	;# 
  1130     0005                     	;# 
  1131     0006                     	;# 
  1132     0007                     	;# 
  1133     0008                     	;# 
  1134     0009                     	;# 
  1135     000A                     	;# 
  1136     000B                     	;# 
  1137     000C                     	;# 
  1138     000D                     	;# 
  1139     000E                     	;# 
  1140     0010                     	;# 
  1141     0011                     	;# 
  1142     0012                     	;# 
  1143     0013                     	;# 
  1144     0014                     	;# 
  1145     0015                     	;# 
  1146     0015                     	;# 
  1147     0016                     	;# 
  1148     0016                     	;# 
  1149     0017                     	;# 
  1150     0018                     	;# 
  1151     0019                     	;# 
  1152     0019                     	;# 
  1153     001A                     	;# 
  1154     001B                     	;# 
  1155     001C                     	;# 
  1156     001D                     	;# 
  1157     001E                     	;# 
  1158     001F                     	;# 
  1159     008C                     	;# 
  1160     008D                     	;# 
  1161     008E                     	;# 
  1162     0090                     	;# 
  1163     0091                     	;# 
  1164     0092                     	;# 
  1165     0093                     	;# 
  1166     0094                     	;# 
  1167     0097                     	;# 
  1168     009B                     	;# 
  1169     009B                     	;# 
  1170     009C                     	;# 
  1171     009D                     	;# 
  1172     009E                     	;# 
  1173     009F                     	;# 
  1174     010C                     	;# 
  1175     010D                     	;# 
  1176     010E                     	;# 
  1177     0111                     	;# 
  1178     0112                     	;# 
  1179     0113                     	;# 
  1180     0114                     	;# 
  1181     0115                     	;# 
  1182     0116                     	;# 
  1183     0117                     	;# 
  1184     0118                     	;# 
  1185     0119                     	;# 
  1186     018C                     	;# 
  1187     018D                     	;# 
  1188     018E                     	;# 
  1189     0197                     	;# 
  1190     0199                     	;# 
  1191     0199                     	;# 
  1192     0199                     	;# 
  1193     019A                     	;# 
  1194     019A                     	;# 
  1195     019A                     	;# 
  1196     019B                     	;# 
  1197     019B                     	;# 
  1198     019B                     	;# 
  1199     019B                     	;# 
  1200     019B                     	;# 
  1201     019C                     	;# 
  1202     019C                     	;# 
  1203     019C                     	;# 
  1204     019D                     	;# 
  1205     019D                     	;# 
  1206     019D                     	;# 
  1207     019E                     	;# 
  1208     019E                     	;# 
  1209     019E                     	;# 
  1210     019F                     	;# 
  1211     019F                     	;# 
  1212     019F                     	;# 
  1213     019F                     	;# 
  1214     019F                     	;# 
  1215     020C                     	;# 
  1216     020D                     	;# 
  1217     020E                     	;# 
  1218     0211                     	;# 
  1219     0211                     	;# 
  1220     0212                     	;# 
  1221     0212                     	;# 
  1222     0213                     	;# 
  1223     0213                     	;# 
  1224     0214                     	;# 
  1225     0214                     	;# 
  1226     0215                     	;# 
  1227     0215                     	;# 
  1228     0215                     	;# 
  1229     0215                     	;# 
  1230     0216                     	;# 
  1231     0216                     	;# 
  1232     0217                     	;# 
  1233     0217                     	;# 
  1234     0219                     	;# 
  1235     021A                     	;# 
  1236     021B                     	;# 
  1237     021C                     	;# 
  1238     021D                     	;# 
  1239     021D                     	;# 
  1240     021E                     	;# 
  1241     021F                     	;# 
  1242     028C                     	;# 
  1243     028D                     	;# 
  1244     028E                     	;# 
  1245     0291                     	;# 
  1246     0291                     	;# 
  1247     0292                     	;# 
  1248     0293                     	;# 
  1249     0294                     	;# 
  1250     0295                     	;# 
  1251     0295                     	;# 
  1252     0296                     	;# 
  1253     0297                     	;# 
  1254     0298                     	;# 
  1255     029F                     	;# 
  1256     030C                     	;# 
  1257     030D                     	;# 
  1258     030E                     	;# 
  1259     0311                     	;# 
  1260     0311                     	;# 
  1261     0312                     	;# 
  1262     0313                     	;# 
  1263     0314                     	;# 
  1264     0315                     	;# 
  1265     0315                     	;# 
  1266     0316                     	;# 
  1267     0317                     	;# 
  1268     0318                     	;# 
  1269     038C                     	;# 
  1270     038D                     	;# 
  1271     038E                     	;# 
  1272     0391                     	;# 
  1273     0392                     	;# 
  1274     0393                     	;# 
  1275     0394                     	;# 
  1276     0395                     	;# 
  1277     0396                     	;# 
  1278     0397                     	;# 
  1279     0398                     	;# 
  1280     0399                     	;# 
  1281     039A                     	;# 
  1282     039C                     	;# 
  1283     039D                     	;# 
  1284     039E                     	;# 
  1285     039F                     	;# 
  1286     0411                     	;# 
  1287     0411                     	;# 
  1288     0412                     	;# 
  1289     0413                     	;# 
  1290     0414                     	;# 
  1291     0415                     	;# 
  1292     0416                     	;# 
  1293     0417                     	;# 
  1294     0418                     	;# 
  1295     0418                     	;# 
  1296     0419                     	;# 
  1297     041A                     	;# 
  1298     041B                     	;# 
  1299     041C                     	;# 
  1300     041D                     	;# 
  1301     041E                     	;# 
  1302     041F                     	;# 
  1303     0498                     	;# 
  1304     0498                     	;# 
  1305     0499                     	;# 
  1306     049A                     	;# 
  1307     049B                     	;# 
  1308     049B                     	;# 
  1309     049C                     	;# 
  1310     049D                     	;# 
  1311     049E                     	;# 
  1312     049F                     	;# 
  1313     0617                     	;# 
  1314     0618                     	;# 
  1315     0619                     	;# 
  1316     0619                     	;# 
  1317     061A                     	;# 
  1318     061B                     	;# 
  1319     061C                     	;# 
  1320     061C                     	;# 
  1321     061F                     	;# 
  1322     0691                     	;# 
  1323     0692                     	;# 
  1324     0693                     	;# 
  1325     0694                     	;# 
  1326     0695                     	;# 
  1327     0696                     	;# 
  1328     0697                     	;# 
  1329     0698                     	;# 
  1330     0699                     	;# 
  1331     0711                     	;# 
  1332     0712                     	;# 
  1333     0713                     	;# 
  1334     0714                     	;# 
  1335     0715                     	;# 
  1336     0716                     	;# 
  1337     0717                     	;# 
  1338     0718                     	;# 
  1339     0719                     	;# 
  1340     0891                     	;# 
  1341     0891                     	;# 
  1342     0891                     	;# 
  1343     0891                     	;# 
  1344     0891                     	;# 
  1345     0891                     	;# 
  1346     0892                     	;# 
  1347     0892                     	;# 
  1348     0892                     	;# 
  1349     0893                     	;# 
  1350     0893                     	;# 
  1351     0893                     	;# 
  1352     0893                     	;# 
  1353     0893                     	;# 
  1354     0893                     	;# 
  1355     0894                     	;# 
  1356     0894                     	;# 
  1357     0894                     	;# 
  1358     0895                     	;# 
  1359     0895                     	;# 
  1360     0895                     	;# 
  1361     0896                     	;# 
  1362     0896                     	;# 
  1363     0896                     	;# 
  1364     089B                     	;# 
  1365     0911                     	;# 
  1366     0912                     	;# 
  1367     0913                     	;# 
  1368     0914                     	;# 
  1369     0915                     	;# 
  1370     0916                     	;# 
  1371     0918                     	;# 
  1372     0919                     	;# 
  1373     091A                     	;# 
  1374     091B                     	;# 
  1375     091C                     	;# 
  1376     091D                     	;# 
  1377     091E                     	;# 
  1378     091F                     	;# 
  1379     0E0F                     	;# 
  1380     0E10                     	;# 
  1381     0E11                     	;# 
  1382     0E12                     	;# 
  1383     0E13                     	;# 
  1384     0E14                     	;# 
  1385     0E15                     	;# 
  1386     0E16                     	;# 
  1387     0E17                     	;# 
  1388     0E18                     	;# 
  1389     0E19                     	;# 
  1390     0E1A                     	;# 
  1391     0E1B                     	;# 
  1392     0E1C                     	;# 
  1393     0E1D                     	;# 
  1394     0E1E                     	;# 
  1395     0E1F                     	;# 
  1396     0E20                     	;# 
  1397     0E21                     	;# 
  1398     0E22                     	;# 
  1399     0E24                     	;# 
  1400     0E25                     	;# 
  1401     0E28                     	;# 
  1402     0E29                     	;# 
  1403     0E2A                     	;# 
  1404     0E2B                     	;# 
  1405     0E2C                     	;# 
  1406     0E2D                     	;# 
  1407     0E2E                     	;# 
  1408     0E2F                     	;# 
  1409     0E90                     	;# 
  1410     0E91                     	;# 
  1411     0E92                     	;# 
  1412     0E94                     	;# 
  1413     0E95                     	;# 
  1414     0E9C                     	;# 
  1415     0E9D                     	;# 
  1416     0E9E                     	;# 
  1417     0E9F                     	;# 
  1418     0EA0                     	;# 
  1419     0EA1                     	;# 
  1420     0EA2                     	;# 
  1421     0EA3                     	;# 
  1422     0EA4                     	;# 
  1423     0EA5                     	;# 
  1424     0EA6                     	;# 
  1425     0EA7                     	;# 
  1426     0F0F                     	;# 
  1427     0F10                     	;# 
  1428     0F11                     	;# 
  1429     0F12                     	;# 
  1430     0F13                     	;# 
  1431     0F14                     	;# 
  1432     0F15                     	;# 
  1433     0F16                     	;# 
  1434     0F17                     	;# 
  1435     0F18                     	;# 
  1436     0F19                     	;# 
  1437     0F1A                     	;# 
  1438     0F1B                     	;# 
  1439     0F1C                     	;# 
  1440     0F1D                     	;# 
  1441     0F1E                     	;# 
  1442     0F1F                     	;# 
  1443     0F20                     	;# 
  1444     0F21                     	;# 
  1445     0F22                     	;# 
  1446     0F23                     	;# 
  1447     0F24                     	;# 
  1448     0F25                     	;# 
  1449     0F26                     	;# 
  1450     0F27                     	;# 
  1451     0F28                     	;# 
  1452     0F29                     	;# 
  1453     0F2A                     	;# 
  1454     0F2B                     	;# 
  1455     0F2C                     	;# 
  1456     0F2D                     	;# 
  1457     0F2E                     	;# 
  1458     0F2F                     	;# 
  1459     0F30                     	;# 
  1460     0F31                     	;# 
  1461     0F32                     	;# 
  1462     0F33                     	;# 
  1463     0F34                     	;# 
  1464     0F35                     	;# 
  1465     0F36                     	;# 
  1466     0F37                     	;# 
  1467     0FE4                     	;# 
  1468     0FE5                     	;# 
  1469     0FE6                     	;# 
  1470     0FE7                     	;# 
  1471     0FE8                     	;# 
  1472     0FE9                     	;# 
  1473     0FEA                     	;# 
  1474     0FEB                     	;# 
  1475     0FED                     	;# 
  1476     0FEE                     	;# 
  1477     0FEF                     	;# 
  1478     0000                     	;# 
  1479     0001                     	;# 
  1480     0002                     	;# 
  1481     0003                     	;# 
  1482     0004                     	;# 
  1483     0005                     	;# 
  1484     0006                     	;# 
  1485     0007                     	;# 
  1486     0008                     	;# 
  1487     0009                     	;# 
  1488     000A                     	;# 
  1489     000B                     	;# 
  1490     000C                     	;# 
  1491     000D                     	;# 
  1492     000E                     	;# 
  1493     0010                     	;# 
  1494     0011                     	;# 
  1495     0012                     	;# 
  1496     0013                     	;# 
  1497     0014                     	;# 
  1498     0015                     	;# 
  1499     0015                     	;# 
  1500     0016                     	;# 
  1501     0016                     	;# 
  1502     0017                     	;# 
  1503     0018                     	;# 
  1504     0019                     	;# 
  1505     0019                     	;# 
  1506     001A                     	;# 
  1507     001B                     	;# 
  1508     001C                     	;# 
  1509     001D                     	;# 
  1510     001E                     	;# 
  1511     001F                     	;# 
  1512     008C                     	;# 
  1513     008D                     	;# 
  1514     008E                     	;# 
  1515     0090                     	;# 
  1516     0091                     	;# 
  1517     0092                     	;# 
  1518     0093                     	;# 
  1519     0094                     	;# 
  1520     0097                     	;# 
  1521     009B                     	;# 
  1522     009B                     	;# 
  1523     009C                     	;# 
  1524     009D                     	;# 
  1525     009E                     	;# 
  1526     009F                     	;# 
  1527     010C                     	;# 
  1528     010D                     	;# 
  1529     010E                     	;# 
  1530     0111                     	;# 
  1531     0112                     	;# 
  1532     0113                     	;# 
  1533     0114                     	;# 
  1534     0115                     	;# 
  1535     0116                     	;# 
  1536     0117                     	;# 
  1537     0118                     	;# 
  1538     0119                     	;# 
  1539     018C                     	;# 
  1540     018D                     	;# 
  1541     018E                     	;# 
  1542     0197                     	;# 
  1543     0199                     	;# 
  1544     0199                     	;# 
  1545     0199                     	;# 
  1546     019A                     	;# 
  1547     019A                     	;# 
  1548     019A                     	;# 
  1549     019B                     	;# 
  1550     019B                     	;# 
  1551     019B                     	;# 
  1552     019B                     	;# 
  1553     019B                     	;# 
  1554     019C                     	;# 
  1555     019C                     	;# 
  1556     019C                     	;# 
  1557     019D                     	;# 
  1558     019D                     	;# 
  1559     019D                     	;# 
  1560     019E                     	;# 
  1561     019E                     	;# 
  1562     019E                     	;# 
  1563     019F                     	;# 
  1564     019F                     	;# 
  1565     019F                     	;# 
  1566     019F                     	;# 
  1567     019F                     	;# 
  1568     020C                     	;# 
  1569     020D                     	;# 
  1570     020E                     	;# 
  1571     0211                     	;# 
  1572     0211                     	;# 
  1573     0212                     	;# 
  1574     0212                     	;# 
  1575     0213                     	;# 
  1576     0213                     	;# 
  1577     0214                     	;# 
  1578     0214                     	;# 
  1579     0215                     	;# 
  1580     0215                     	;# 
  1581     0215                     	;# 
  1582     0215                     	;# 
  1583     0216                     	;# 
  1584     0216                     	;# 
  1585     0217                     	;# 
  1586     0217                     	;# 
  1587     0219                     	;# 
  1588     021A                     	;# 
  1589     021B                     	;# 
  1590     021C                     	;# 
  1591     021D                     	;# 
  1592     021D                     	;# 
  1593     021E                     	;# 
  1594     021F                     	;# 
  1595     028C                     	;# 
  1596     028D                     	;# 
  1597     028E                     	;# 
  1598     0291                     	;# 
  1599     0291                     	;# 
  1600     0292                     	;# 
  1601     0293                     	;# 
  1602     0294                     	;# 
  1603     0295                     	;# 
  1604     0295                     	;# 
  1605     0296                     	;# 
  1606     0297                     	;# 
  1607     0298                     	;# 
  1608     029F                     	;# 
  1609     030C                     	;# 
  1610     030D                     	;# 
  1611     030E                     	;# 
  1612     0311                     	;# 
  1613     0311                     	;# 
  1614     0312                     	;# 
  1615     0313                     	;# 
  1616     0314                     	;# 
  1617     0315                     	;# 
  1618     0315                     	;# 
  1619     0316                     	;# 
  1620     0317                     	;# 
  1621     0318                     	;# 
  1622     038C                     	;# 
  1623     038D                     	;# 
  1624     038E                     	;# 
  1625     0391                     	;# 
  1626     0392                     	;# 
  1627     0393                     	;# 
  1628     0394                     	;# 
  1629     0395                     	;# 
  1630     0396                     	;# 
  1631     0397                     	;# 
  1632     0398                     	;# 
  1633     0399                     	;# 
  1634     039A                     	;# 
  1635     039C                     	;# 
  1636     039D                     	;# 
  1637     039E                     	;# 
  1638     039F                     	;# 
  1639     0411                     	;# 
  1640     0411                     	;# 
  1641     0412                     	;# 
  1642     0413                     	;# 
  1643     0414                     	;# 
  1644     0415                     	;# 
  1645     0416                     	;# 
  1646     0417                     	;# 
  1647     0418                     	;# 
  1648     0418                     	;# 
  1649     0419                     	;# 
  1650     041A                     	;# 
  1651     041B                     	;# 
  1652     041C                     	;# 
  1653     041D                     	;# 
  1654     041E                     	;# 
  1655     041F                     	;# 
  1656     0498                     	;# 
  1657     0498                     	;# 
  1658     0499                     	;# 
  1659     049A                     	;# 
  1660     049B                     	;# 
  1661     049B                     	;# 
  1662     049C                     	;# 
  1663     049D                     	;# 
  1664     049E                     	;# 
  1665     049F                     	;# 
  1666     0617                     	;# 
  1667     0618                     	;# 
  1668     0619                     	;# 
  1669     0619                     	;# 
  1670     061A                     	;# 
  1671     061B                     	;# 
  1672     061C                     	;# 
  1673     061C                     	;# 
  1674     061F                     	;# 
  1675     0691                     	;# 
  1676     0692                     	;# 
  1677     0693                     	;# 
  1678     0694                     	;# 
  1679     0695                     	;# 
  1680     0696                     	;# 
  1681     0697                     	;# 
  1682     0698                     	;# 
  1683     0699                     	;# 
  1684     0711                     	;# 
  1685     0712                     	;# 
  1686     0713                     	;# 
  1687     0714                     	;# 
  1688     0715                     	;# 
  1689     0716                     	;# 
  1690     0717                     	;# 
  1691     0718                     	;# 
  1692     0719                     	;# 
  1693     0891                     	;# 
  1694     0891                     	;# 
  1695     0891                     	;# 
  1696     0891                     	;# 
  1697     0891                     	;# 
  1698     0891                     	;# 
  1699     0892                     	;# 
  1700     0892                     	;# 
  1701     0892                     	;# 
  1702     0893                     	;# 
  1703     0893                     	;# 
  1704     0893                     	;# 
  1705     0893                     	;# 
  1706     0893                     	;# 
  1707     0893                     	;# 
  1708     0894                     	;# 
  1709     0894                     	;# 
  1710     0894                     	;# 
  1711     0895                     	;# 
  1712     0895                     	;# 
  1713     0895                     	;# 
  1714     0896                     	;# 
  1715     0896                     	;# 
  1716     0896                     	;# 
  1717     089B                     	;# 
  1718     0911                     	;# 
  1719     0912                     	;# 
  1720     0913                     	;# 
  1721     0914                     	;# 
  1722     0915                     	;# 
  1723     0916                     	;# 
  1724     0918                     	;# 
  1725     0919                     	;# 
  1726     091A                     	;# 
  1727     091B                     	;# 
  1728     091C                     	;# 
  1729     091D                     	;# 
  1730     091E                     	;# 
  1731     091F                     	;# 
  1732     0E0F                     	;# 
  1733     0E10                     	;# 
  1734     0E11                     	;# 
  1735     0E12                     	;# 
  1736     0E13                     	;# 
  1737     0E14                     	;# 
  1738     0E15                     	;# 
  1739     0E16                     	;# 
  1740     0E17                     	;# 
  1741     0E18                     	;# 
  1742     0E19                     	;# 
  1743     0E1A                     	;# 
  1744     0E1B                     	;# 
  1745     0E1C                     	;# 
  1746     0E1D                     	;# 
  1747     0E1E                     	;# 
  1748     0E1F                     	;# 
  1749     0E20                     	;# 
  1750     0E21                     	;# 
  1751     0E22                     	;# 
  1752     0E24                     	;# 
  1753     0E25                     	;# 
  1754     0E28                     	;# 
  1755     0E29                     	;# 
  1756     0E2A                     	;# 
  1757     0E2B                     	;# 
  1758     0E2C                     	;# 
  1759     0E2D                     	;# 
  1760     0E2E                     	;# 
  1761     0E2F                     	;# 
  1762     0E90                     	;# 
  1763     0E91                     	;# 
  1764     0E92                     	;# 
  1765     0E94                     	;# 
  1766     0E95                     	;# 
  1767     0E9C                     	;# 
  1768     0E9D                     	;# 
  1769     0E9E                     	;# 
  1770     0E9F                     	;# 
  1771     0EA0                     	;# 
  1772     0EA1                     	;# 
  1773     0EA2                     	;# 
  1774     0EA3                     	;# 
  1775     0EA4                     	;# 
  1776     0EA5                     	;# 
  1777     0EA6                     	;# 
  1778     0EA7                     	;# 
  1779     0F0F                     	;# 
  1780     0F10                     	;# 
  1781     0F11                     	;# 
  1782     0F12                     	;# 
  1783     0F13                     	;# 
  1784     0F14                     	;# 
  1785     0F15                     	;# 
  1786     0F16                     	;# 
  1787     0F17                     	;# 
  1788     0F18                     	;# 
  1789     0F19                     	;# 
  1790     0F1A                     	;# 
  1791     0F1B                     	;# 
  1792     0F1C                     	;# 
  1793     0F1D                     	;# 
  1794     0F1E                     	;# 
  1795     0F1F                     	;# 
  1796     0F20                     	;# 
  1797     0F21                     	;# 
  1798     0F22                     	;# 
  1799     0F23                     	;# 
  1800     0F24                     	;# 
  1801     0F25                     	;# 
  1802     0F26                     	;# 
  1803     0F27                     	;# 
  1804     0F28                     	;# 
  1805     0F29                     	;# 
  1806     0F2A                     	;# 
  1807     0F2B                     	;# 
  1808     0F2C                     	;# 
  1809     0F2D                     	;# 
  1810     0F2E                     	;# 
  1811     0F2F                     	;# 
  1812     0F30                     	;# 
  1813     0F31                     	;# 
  1814     0F32                     	;# 
  1815     0F33                     	;# 
  1816     0F34                     	;# 
  1817     0F35                     	;# 
  1818     0F36                     	;# 
  1819     0F37                     	;# 
  1820     0FE4                     	;# 
  1821     0FE5                     	;# 
  1822     0FE6                     	;# 
  1823     0FE7                     	;# 
  1824     0FE8                     	;# 
  1825     0FE9                     	;# 
  1826     0FEA                     	;# 
  1827     0FEB                     	;# 
  1828     0FED                     	;# 
  1829     0FEE                     	;# 
  1830     0FEF                     	;# 
  1831     0000                     	;# 
  1832     0001                     	;# 
  1833     0002                     	;# 
  1834     0003                     	;# 
  1835     0004                     	;# 
  1836     0005                     	;# 
  1837     0006                     	;# 
  1838     0007                     	;# 
  1839     0008                     	;# 
  1840     0009                     	;# 
  1841     000A                     	;# 
  1842     000B                     	;# 
  1843     000C                     	;# 
  1844     000D                     	;# 
  1845     000E                     	;# 
  1846     0010                     	;# 
  1847     0011                     	;# 
  1848     0012                     	;# 
  1849     0013                     	;# 
  1850     0014                     	;# 
  1851     0015                     	;# 
  1852     0015                     	;# 
  1853     0016                     	;# 
  1854     0016                     	;# 
  1855     0017                     	;# 
  1856     0018                     	;# 
  1857     0019                     	;# 
  1858     0019                     	;# 
  1859     001A                     	;# 
  1860     001B                     	;# 
  1861     001C                     	;# 
  1862     001D                     	;# 
  1863     001E                     	;# 
  1864     001F                     	;# 
  1865     008C                     	;# 
  1866     008D                     	;# 
  1867     008E                     	;# 
  1868     0090                     	;# 
  1869     0091                     	;# 
  1870     0092                     	;# 
  1871     0093                     	;# 
  1872     0094                     	;# 
  1873     0097                     	;# 
  1874     009B                     	;# 
  1875     009B                     	;# 
  1876     009C                     	;# 
  1877     009D                     	;# 
  1878     009E                     	;# 
  1879     009F                     	;# 
  1880     010C                     	;# 
  1881     010D                     	;# 
  1882     010E                     	;# 
  1883     0111                     	;# 
  1884     0112                     	;# 
  1885     0113                     	;# 
  1886     0114                     	;# 
  1887     0115                     	;# 
  1888     0116                     	;# 
  1889     0117                     	;# 
  1890     0118                     	;# 
  1891     0119                     	;# 
  1892     018C                     	;# 
  1893     018D                     	;# 
  1894     018E                     	;# 
  1895     0197                     	;# 
  1896     0199                     	;# 
  1897     0199                     	;# 
  1898     0199                     	;# 
  1899     019A                     	;# 
  1900     019A                     	;# 
  1901     019A                     	;# 
  1902     019B                     	;# 
  1903     019B                     	;# 
  1904     019B                     	;# 
  1905     019B                     	;# 
  1906     019B                     	;# 
  1907     019C                     	;# 
  1908     019C                     	;# 
  1909     019C                     	;# 
  1910     019D                     	;# 
  1911     019D                     	;# 
  1912     019D                     	;# 
  1913     019E                     	;# 
  1914     019E                     	;# 
  1915     019E                     	;# 
  1916     019F                     	;# 
  1917     019F                     	;# 
  1918     019F                     	;# 
  1919     019F                     	;# 
  1920     019F                     	;# 
  1921     020C                     	;# 
  1922     020D                     	;# 
  1923     020E                     	;# 
  1924     0211                     	;# 
  1925     0211                     	;# 
  1926     0212                     	;# 
  1927     0212                     	;# 
  1928     0213                     	;# 
  1929     0213                     	;# 
  1930     0214                     	;# 
  1931     0214                     	;# 
  1932     0215                     	;# 
  1933     0215                     	;# 
  1934     0215                     	;# 
  1935     0215                     	;# 
  1936     0216                     	;# 
  1937     0216                     	;# 
  1938     0217                     	;# 
  1939     0217                     	;# 
  1940     0219                     	;# 
  1941     021A                     	;# 
  1942     021B                     	;# 
  1943     021C                     	;# 
  1944     021D                     	;# 
  1945     021D                     	;# 
  1946     021E                     	;# 
  1947     021F                     	;# 
  1948     028C                     	;# 
  1949     028D                     	;# 
  1950     028E                     	;# 
  1951     0291                     	;# 
  1952     0291                     	;# 
  1953     0292                     	;# 
  1954     0293                     	;# 
  1955     0294                     	;# 
  1956     0295                     	;# 
  1957     0295                     	;# 
  1958     0296                     	;# 
  1959     0297                     	;# 
  1960     0298                     	;# 
  1961     029F                     	;# 
  1962     030C                     	;# 
  1963     030D                     	;# 
  1964     030E                     	;# 
  1965     0311                     	;# 
  1966     0311                     	;# 
  1967     0312                     	;# 
  1968     0313                     	;# 
  1969     0314                     	;# 
  1970     0315                     	;# 
  1971     0315                     	;# 
  1972     0316                     	;# 
  1973     0317                     	;# 
  1974     0318                     	;# 
  1975     038C                     	;# 
  1976     038D                     	;# 
  1977     038E                     	;# 
  1978     0391                     	;# 
  1979     0392                     	;# 
  1980     0393                     	;# 
  1981     0394                     	;# 
  1982     0395                     	;# 
  1983     0396                     	;# 
  1984     0397                     	;# 
  1985     0398                     	;# 
  1986     0399                     	;# 
  1987     039A                     	;# 
  1988     039C                     	;# 
  1989     039D                     	;# 
  1990     039E                     	;# 
  1991     039F                     	;# 
  1992     0411                     	;# 
  1993     0411                     	;# 
  1994     0412                     	;# 
  1995     0413                     	;# 
  1996     0414                     	;# 
  1997     0415                     	;# 
  1998     0416                     	;# 
  1999     0417                     	;# 
  2000     0418                     	;# 
  2001     0418                     	;# 
  2002     0419                     	;# 
  2003     041A                     	;# 
  2004     041B                     	;# 
  2005     041C                     	;# 
  2006     041D                     	;# 
  2007     041E                     	;# 
  2008     041F                     	;# 
  2009     0498                     	;# 
  2010     0498                     	;# 
  2011     0499                     	;# 
  2012     049A                     	;# 
  2013     049B                     	;# 
  2014     049B                     	;# 
  2015     049C                     	;# 
  2016     049D                     	;# 
  2017     049E                     	;# 
  2018     049F                     	;# 
  2019     0617                     	;# 
  2020     0618                     	;# 
  2021     0619                     	;# 
  2022     0619                     	;# 
  2023     061A                     	;# 
  2024     061B                     	;# 
  2025     061C                     	;# 
  2026     061C                     	;# 
  2027     061F                     	;# 
  2028     0691                     	;# 
  2029     0692                     	;# 
  2030     0693                     	;# 
  2031     0694                     	;# 
  2032     0695                     	;# 
  2033     0696                     	;# 
  2034     0697                     	;# 
  2035     0698                     	;# 
  2036     0699                     	;# 
  2037     0711                     	;# 
  2038     0712                     	;# 
  2039     0713                     	;# 
  2040     0714                     	;# 
  2041     0715                     	;# 
  2042     0716                     	;# 
  2043     0717                     	;# 
  2044     0718                     	;# 
  2045     0719                     	;# 
  2046     0891                     	;# 
  2047     0891                     	;# 
  2048     0891                     	;# 
  2049     0891                     	;# 
  2050     0891                     	;# 
  2051     0891                     	;# 
  2052     0892                     	;# 
  2053     0892                     	;# 
  2054     0892                     	;# 
  2055     0893                     	;# 
  2056     0893                     	;# 
  2057     0893                     	;# 
  2058     0893                     	;# 
  2059     0893                     	;# 
  2060     0893                     	;# 
  2061     0894                     	;# 
  2062     0894                     	;# 
  2063     0894                     	;# 
  2064     0895                     	;# 
  2065     0895                     	;# 
  2066     0895                     	;# 
  2067     0896                     	;# 
  2068     0896                     	;# 
  2069     0896                     	;# 
  2070     089B                     	;# 
  2071     0911                     	;# 
  2072     0912                     	;# 
  2073     0913                     	;# 
  2074     0914                     	;# 
  2075     0915                     	;# 
  2076     0916                     	;# 
  2077     0918                     	;# 
  2078     0919                     	;# 
  2079     091A                     	;# 
  2080     091B                     	;# 
  2081     091C                     	;# 
  2082     091D                     	;# 
  2083     091E                     	;# 
  2084     091F                     	;# 
  2085     0E0F                     	;# 
  2086     0E10                     	;# 
  2087     0E11                     	;# 
  2088     0E12                     	;# 
  2089     0E13                     	;# 
  2090     0E14                     	;# 
  2091     0E15                     	;# 
  2092     0E16                     	;# 
  2093     0E17                     	;# 
  2094     0E18                     	;# 
  2095     0E19                     	;# 
  2096     0E1A                     	;# 
  2097     0E1B                     	;# 
  2098     0E1C                     	;# 
  2099     0E1D                     	;# 
  2100     0E1E                     	;# 
  2101     0E1F                     	;# 
  2102     0E20                     	;# 
  2103     0E21                     	;# 
  2104     0E22                     	;# 
  2105     0E24                     	;# 
  2106     0E25                     	;# 
  2107     0E28                     	;# 
  2108     0E29                     	;# 
  2109     0E2A                     	;# 
  2110     0E2B                     	;# 
  2111     0E2C                     	;# 
  2112     0E2D                     	;# 
  2113     0E2E                     	;# 
  2114     0E2F                     	;# 
  2115     0E90                     	;# 
  2116     0E91                     	;# 
  2117     0E92                     	;# 
  2118     0E94                     	;# 
  2119     0E95                     	;# 
  2120     0E9C                     	;# 
  2121     0E9D                     	;# 
  2122     0E9E                     	;# 
  2123     0E9F                     	;# 
  2124     0EA0                     	;# 
  2125     0EA1                     	;# 
  2126     0EA2                     	;# 
  2127     0EA3                     	;# 
  2128     0EA4                     	;# 
  2129     0EA5                     	;# 
  2130     0EA6                     	;# 
  2131     0EA7                     	;# 
  2132     0F0F                     	;# 
  2133     0F10                     	;# 
  2134     0F11                     	;# 
  2135     0F12                     	;# 
  2136     0F13                     	;# 
  2137     0F14                     	;# 
  2138     0F15                     	;# 
  2139     0F16                     	;# 
  2140     0F17                     	;# 
  2141     0F18                     	;# 
  2142     0F19                     	;# 
  2143     0F1A                     	;# 
  2144     0F1B                     	;# 
  2145     0F1C                     	;# 
  2146     0F1D                     	;# 
  2147     0F1E                     	;# 
  2148     0F1F                     	;# 
  2149     0F20                     	;# 
  2150     0F21                     	;# 
  2151     0F22                     	;# 
  2152     0F23                     	;# 
  2153     0F24                     	;# 
  2154     0F25                     	;# 
  2155     0F26                     	;# 
  2156     0F27                     	;# 
  2157     0F28                     	;# 
  2158     0F29                     	;# 
  2159     0F2A                     	;# 
  2160     0F2B                     	;# 
  2161     0F2C                     	;# 
  2162     0F2D                     	;# 
  2163     0F2E                     	;# 
  2164     0F2F                     	;# 
  2165     0F30                     	;# 
  2166     0F31                     	;# 
  2167     0F32                     	;# 
  2168     0F33                     	;# 
  2169     0F34                     	;# 
  2170     0F35                     	;# 
  2171     0F36                     	;# 
  2172     0F37                     	;# 
  2173     0FE4                     	;# 
  2174     0FE5                     	;# 
  2175     0FE6                     	;# 
  2176     0FE7                     	;# 
  2177     0FE8                     	;# 
  2178     0FE9                     	;# 
  2179     0FEA                     	;# 
  2180     0FEB                     	;# 
  2181     0FED                     	;# 
  2182     0FEE                     	;# 
  2183     0FEF                     	;# 
  2184     0000                     	;# 
  2185     0001                     	;# 
  2186     0002                     	;# 
  2187     0003                     	;# 
  2188     0004                     	;# 
  2189     0005                     	;# 
  2190     0006                     	;# 
  2191     0007                     	;# 
  2192     0008                     	;# 
  2193     0009                     	;# 
  2194     000A                     	;# 
  2195     000B                     	;# 
  2196     000C                     	;# 
  2197     000D                     	;# 
  2198     000E                     	;# 
  2199     0010                     	;# 
  2200     0011                     	;# 
  2201     0012                     	;# 
  2202     0013                     	;# 
  2203     0014                     	;# 
  2204     0015                     	;# 
  2205     0015                     	;# 
  2206     0016                     	;# 
  2207     0016                     	;# 
  2208     0017                     	;# 
  2209     0018                     	;# 
  2210     0019                     	;# 
  2211     0019                     	;# 
  2212     001A                     	;# 
  2213     001B                     	;# 
  2214     001C                     	;# 
  2215     001D                     	;# 
  2216     001E                     	;# 
  2217     001F                     	;# 
  2218     008C                     	;# 
  2219     008D                     	;# 
  2220     008E                     	;# 
  2221     0090                     	;# 
  2222     0091                     	;# 
  2223     0092                     	;# 
  2224     0093                     	;# 
  2225     0094                     	;# 
  2226     0097                     	;# 
  2227     009B                     	;# 
  2228     009B                     	;# 
  2229     009C                     	;# 
  2230     009D                     	;# 
  2231     009E                     	;# 
  2232     009F                     	;# 
  2233     010C                     	;# 
  2234     010D                     	;# 
  2235     010E                     	;# 
  2236     0111                     	;# 
  2237     0112                     	;# 
  2238     0113                     	;# 
  2239     0114                     	;# 
  2240     0115                     	;# 
  2241     0116                     	;# 
  2242     0117                     	;# 
  2243     0118                     	;# 
  2244     0119                     	;# 
  2245     018C                     	;# 
  2246     018D                     	;# 
  2247     018E                     	;# 
  2248     0197                     	;# 
  2249     0199                     	;# 
  2250     0199                     	;# 
  2251     0199                     	;# 
  2252     019A                     	;# 
  2253     019A                     	;# 
  2254     019A                     	;# 
  2255     019B                     	;# 
  2256     019B                     	;# 
  2257     019B                     	;# 
  2258     019B                     	;# 
  2259     019B                     	;# 
  2260     019C                     	;# 
  2261     019C                     	;# 
  2262     019C                     	;# 
  2263     019D                     	;# 
  2264     019D                     	;# 
  2265     019D                     	;# 
  2266     019E                     	;# 
  2267     019E                     	;# 
  2268     019E                     	;# 
  2269     019F                     	;# 
  2270     019F                     	;# 
  2271     019F                     	;# 
  2272     019F                     	;# 
  2273     019F                     	;# 
  2274     020C                     	;# 
  2275     020D                     	;# 
  2276     020E                     	;# 
  2277     0211                     	;# 
  2278     0211                     	;# 
  2279     0212                     	;# 
  2280     0212                     	;# 
  2281     0213                     	;# 
  2282     0213                     	;# 
  2283     0214                     	;# 
  2284     0214                     	;# 
  2285     0215                     	;# 
  2286     0215                     	;# 
  2287     0215                     	;# 
  2288     0215                     	;# 
  2289     0216                     	;# 
  2290     0216                     	;# 
  2291     0217                     	;# 
  2292     0217                     	;# 
  2293     0219                     	;# 
  2294     021A                     	;# 
  2295     021B                     	;# 
  2296     021C                     	;# 
  2297     021D                     	;# 
  2298     021D                     	;# 
  2299     021E                     	;# 
  2300     021F                     	;# 
  2301     028C                     	;# 
  2302     028D                     	;# 
  2303     028E                     	;# 
  2304     0291                     	;# 
  2305     0291                     	;# 
  2306     0292                     	;# 
  2307     0293                     	;# 
  2308     0294                     	;# 
  2309     0295                     	;# 
  2310     0295                     	;# 
  2311     0296                     	;# 
  2312     0297                     	;# 
  2313     0298                     	;# 
  2314     029F                     	;# 
  2315     030C                     	;# 
  2316     030D                     	;# 
  2317     030E                     	;# 
  2318     0311                     	;# 
  2319     0311                     	;# 
  2320     0312                     	;# 
  2321     0313                     	;# 
  2322     0314                     	;# 
  2323     0315                     	;# 
  2324     0315                     	;# 
  2325     0316                     	;# 
  2326     0317                     	;# 
  2327     0318                     	;# 
  2328     038C                     	;# 
  2329     038D                     	;# 
  2330     038E                     	;# 
  2331     0391                     	;# 
  2332     0392                     	;# 
  2333     0393                     	;# 
  2334     0394                     	;# 
  2335     0395                     	;# 
  2336     0396                     	;# 
  2337     0397                     	;# 
  2338     0398                     	;# 
  2339     0399                     	;# 
  2340     039A                     	;# 
  2341     039C                     	;# 
  2342     039D                     	;# 
  2343     039E                     	;# 
  2344     039F                     	;# 
  2345     0411                     	;# 
  2346     0411                     	;# 
  2347     0412                     	;# 
  2348     0413                     	;# 
  2349     0414                     	;# 
  2350     0415                     	;# 
  2351     0416                     	;# 
  2352     0417                     	;# 
  2353     0418                     	;# 
  2354     0418                     	;# 
  2355     0419                     	;# 
  2356     041A                     	;# 
  2357     041B                     	;# 
  2358     041C                     	;# 
  2359     041D                     	;# 
  2360     041E                     	;# 
  2361     041F                     	;# 
  2362     0498                     	;# 
  2363     0498                     	;# 
  2364     0499                     	;# 
  2365     049A                     	;# 
  2366     049B                     	;# 
  2367     049B                     	;# 
  2368     049C                     	;# 
  2369     049D                     	;# 
  2370     049E                     	;# 
  2371     049F                     	;# 
  2372     0617                     	;# 
  2373     0618                     	;# 
  2374     0619                     	;# 
  2375     0619                     	;# 
  2376     061A                     	;# 
  2377     061B                     	;# 
  2378     061C                     	;# 
  2379     061C                     	;# 
  2380     061F                     	;# 
  2381     0691                     	;# 
  2382     0692                     	;# 
  2383     0693                     	;# 
  2384     0694                     	;# 
  2385     0695                     	;# 
  2386     0696                     	;# 
  2387     0697                     	;# 
  2388     0698                     	;# 
  2389     0699                     	;# 
  2390     0711                     	;# 
  2391     0712                     	;# 
  2392     0713                     	;# 
  2393     0714                     	;# 
  2394     0715                     	;# 
  2395     0716                     	;# 
  2396     0717                     	;# 
  2397     0718                     	;# 
  2398     0719                     	;# 
  2399     0891                     	;# 
  2400     0891                     	;# 
  2401     0891                     	;# 
  2402     0891                     	;# 
  2403     0891                     	;# 
  2404     0891                     	;# 
  2405     0892                     	;# 
  2406     0892                     	;# 
  2407     0892                     	;# 
  2408     0893                     	;# 
  2409     0893                     	;# 
  2410     0893                     	;# 
  2411     0893                     	;# 
  2412     0893                     	;# 
  2413     0893                     	;# 
  2414     0894                     	;# 
  2415     0894                     	;# 
  2416     0894                     	;# 
  2417     0895                     	;# 
  2418     0895                     	;# 
  2419     0895                     	;# 
  2420     0896                     	;# 
  2421     0896                     	;# 
  2422     0896                     	;# 
  2423     089B                     	;# 
  2424     0911                     	;# 
  2425     0912                     	;# 
  2426     0913                     	;# 
  2427     0914                     	;# 
  2428     0915                     	;# 
  2429     0916                     	;# 
  2430     0918                     	;# 
  2431     0919                     	;# 
  2432     091A                     	;# 
  2433     091B                     	;# 
  2434     091C                     	;# 
  2435     091D                     	;# 
  2436     091E                     	;# 
  2437     091F                     	;# 
  2438     0E0F                     	;# 
  2439     0E10                     	;# 
  2440     0E11                     	;# 
  2441     0E12                     	;# 
  2442     0E13                     	;# 
  2443     0E14                     	;# 
  2444     0E15                     	;# 
  2445     0E16                     	;# 
  2446     0E17                     	;# 
  2447     0E18                     	;# 
  2448     0E19                     	;# 
  2449     0E1A                     	;# 
  2450     0E1B                     	;# 
  2451     0E1C                     	;# 
  2452     0E1D                     	;# 
  2453     0E1E                     	;# 
  2454     0E1F                     	;# 
  2455     0E20                     	;# 
  2456     0E21                     	;# 
  2457     0E22                     	;# 
  2458     0E24                     	;# 
  2459     0E25                     	;# 
  2460     0E28                     	;# 
  2461     0E29                     	;# 
  2462     0E2A                     	;# 
  2463     0E2B                     	;# 
  2464     0E2C                     	;# 
  2465     0E2D                     	;# 
  2466     0E2E                     	;# 
  2467     0E2F                     	;# 
  2468     0E90                     	;# 
  2469     0E91                     	;# 
  2470     0E92                     	;# 
  2471     0E94                     	;# 
  2472     0E95                     	;# 
  2473     0E9C                     	;# 
  2474     0E9D                     	;# 
  2475     0E9E                     	;# 
  2476     0E9F                     	;# 
  2477     0EA0                     	;# 
  2478     0EA1                     	;# 
  2479     0EA2                     	;# 
  2480     0EA3                     	;# 
  2481     0EA4                     	;# 
  2482     0EA5                     	;# 
  2483     0EA6                     	;# 
  2484     0EA7                     	;# 
  2485     0F0F                     	;# 
  2486     0F10                     	;# 
  2487     0F11                     	;# 
  2488     0F12                     	;# 
  2489     0F13                     	;# 
  2490     0F14                     	;# 
  2491     0F15                     	;# 
  2492     0F16                     	;# 
  2493     0F17                     	;# 
  2494     0F18                     	;# 
  2495     0F19                     	;# 
  2496     0F1A                     	;# 
  2497     0F1B                     	;# 
  2498     0F1C                     	;# 
  2499     0F1D                     	;# 
  2500     0F1E                     	;# 
  2501     0F1F                     	;# 
  2502     0F20                     	;# 
  2503     0F21                     	;# 
  2504     0F22                     	;# 
  2505     0F23                     	;# 
  2506     0F24                     	;# 
  2507     0F25                     	;# 
  2508     0F26                     	;# 
  2509     0F27                     	;# 
  2510     0F28                     	;# 
  2511     0F29                     	;# 
  2512     0F2A                     	;# 
  2513     0F2B                     	;# 
  2514     0F2C                     	;# 
  2515     0F2D                     	;# 
  2516     0F2E                     	;# 
  2517     0F2F                     	;# 
  2518     0F30                     	;# 
  2519     0F31                     	;# 
  2520     0F32                     	;# 
  2521     0F33                     	;# 
  2522     0F34                     	;# 
  2523     0F35                     	;# 
  2524     0F36                     	;# 
  2525     0F37                     	;# 
  2526     0FE4                     	;# 
  2527     0FE5                     	;# 
  2528     0FE6                     	;# 
  2529     0FE7                     	;# 
  2530     0FE8                     	;# 
  2531     0FE9                     	;# 
  2532     0FEA                     	;# 
  2533     0FEB                     	;# 
  2534     0FED                     	;# 
  2535     0FEE                     	;# 
  2536     0FEF                     	;# 
  2537                           
  2538 ;; Function _INT_DefaultInterruptHandler is unused but had its address taken
  2539     0000                     
  2540 ;; Function _EUSART_Deinitialize is unused but had its address taken
  2541     0000                     
  2542 ;; Function _EUSART_TransmitEnable is unused but had its address taken
  2543     0000                     
  2544 ;; Function _EUSART_TransmitDisable is unused but had its address taken
  2545     0000                     
  2546 ;; Function _EUSART_AutoBaudSet is unused but had its address taken
  2547     0000                     
  2548 ;; Function _EUSART_AutoBaudQuery is unused but had its address taken
  2549     0000                     
  2550 ;; Function _EUSART_IsRxReady is unused but had its address taken
  2551     0000                     
  2552 ;; Function _EUSART_IsTxDone is unused but had its address taken
  2553     0000                     
  2554 ;; Function _EUSART_ErrorGet is unused but had its address taken
  2555     0000                     
  2556 ;; Function _EUSART_Read is unused but had its address taken
  2557     0000                     
  2558 ;; Function _EUSART_DefaultFramingErrorCallback is unused but had its address taken
  2559     0000                     
  2560 ;; Function _EUSART_DefaultOverrunErrorCallback is unused but had its address taken
  2561     0000                     
  2562                           	psect	stringtext1
  2563     00CA                     __pstringtext1:
  2564     00CA                     _UART1:
  2565     00CA  346A               	retlw	low _EUSART_Initialize
  2566     00CB  3401               	retlw	high _EUSART_Initialize
  2567     00CC  3400               	retlw	0
  2568     00CD  3400               	retlw	0
  2569     00CE  3400               	retlw	0
  2570     00CF  3400               	retlw	0
  2571     00D0  3407               	retlw	low _EUSART_Write
  2572     00D1  3402               	retlw	high _EUSART_Write
  2573     00D2  3400               	retlw	0
  2574     00D3  3400               	retlw	0
  2575     00D4  34A5               	retlw	low _EUSART_IsTxReady
  2576     00D5  3401               	retlw	high _EUSART_IsTxReady
  2577     00D6  3400               	retlw	0
  2578     00D7  3400               	retlw	0
  2579     00D8  3400               	retlw	0
  2580     00D9  3400               	retlw	0
  2581     00DA  3400               	retlw	0
  2582     00DB  3400               	retlw	0
  2583     00DC  3400               	retlw	0
  2584     00DD  3400               	retlw	0
  2585     00DE  3400               	retlw	0
  2586     00DF  3400               	retlw	0
  2587     00E0  3400               	retlw	0
  2588     00E1  3400               	retlw	0
  2589     00E2  3400               	retlw	0
  2590     00E3  3400               	retlw	0
  2591     00E4  3400               	retlw	0
  2592     00E5  3400               	retlw	0
  2593     00E6  3400               	retlw	0
  2594     00E7  3400               	retlw	0
  2595     00E8  3400               	retlw	0
  2596     00E9  3400               	retlw	0
  2597     00EA  3400               	retlw	0
  2598     00EB  3400               	retlw	0
  2599     00EC  3400               	retlw	0
  2600     00ED  3400               	retlw	0
  2601     00EE  3400               	retlw	0
  2602     00EF  3400               	retlw	0
  2603     00F0  3400               	retlw	0
  2604     00F1  3400               	retlw	0
  2605     00F2  34DB               	retlw	low _EUSART_FramingErrorCallbackRegister
  2606     00F3  3401               	retlw	high _EUSART_FramingErrorCallbackRegister
  2607     00F4  34CF               	retlw	low _EUSART_OverrunErrorCallbackRegister
  2608     00F5  3401               	retlw	high _EUSART_OverrunErrorCallbackRegister
  2609     00F6  3400               	retlw	0
  2610     00F7  3400               	retlw	0
  2611     00F8  3400               	retlw	0
  2612     00F9  3400               	retlw	0
  2613     00FA                     __end_of_UART1:
  2614     0011                     _PIR1bits	set	17
  2615     000B                     _INTCONbits	set	11
  2616     0010                     _PIR0bits	set	16
  2617     008E                     _TRISC	set	142
  2618     008D                     _TRISB	set	141
  2619     008C                     _TRISA	set	140
  2620     0090                     _PIE0bits	set	144
  2621     010E                     _LATC	set	270
  2622     010D                     _LATB	set	269
  2623     010C                     _LATA	set	268
  2624     019A                     _TX1REG	set	410
  2625     0199                     _RC1REG	set	409
  2626     019F                     _BAUD1CONbits	set	415
  2627     019E                     _TX1STAbits	set	414
  2628     019D                     _RC1STAbits	set	413
  2629     019C                     _SP1BRGH	set	412
  2630     019B                     _SP1BRGL	set	411
  2631     019E                     _TX1STA	set	414
  2632     019D                     _RC1STA	set	413
  2633     019F                     _BAUD1CON	set	415
  2634     018E                     _ANSELC	set	398
  2635     018D                     _ANSELB	set	397
  2636     018C                     _ANSELA	set	396
  2637     020E                     _WPUC	set	526
  2638     020D                     _WPUB	set	525
  2639     020C                     _WPUA	set	524
  2640     028E                     _ODCONC	set	654
  2641     028D                     _ODCONB	set	653
  2642     028C                     _ODCONA	set	652
  2643     030E                     _SLRCONC	set	782
  2644     030D                     _SLRCONB	set	781
  2645     030C                     _SLRCONA	set	780
  2646     0399                     _IOCCF	set	921
  2647     0398                     _IOCCN	set	920
  2648     0397                     _IOCCP	set	919
  2649     0396                     _IOCBF	set	918
  2650     0395                     _IOCBN	set	917
  2651     0394                     _IOCBP	set	916
  2652     0393                     _IOCAF	set	915
  2653     0392                     _IOCAN	set	914
  2654     0391                     _IOCAP	set	913
  2655     038E                     _INLVLC	set	910
  2656     038D                     _INLVLB	set	909
  2657     038C                     _INLVLA	set	908
  2658     091E                     _OSCTUNE	set	2334
  2659     091F                     _OSCFRQ	set	2335
  2660     091D                     _OSCEN	set	2333
  2661     091B                     _OSCCON3	set	2331
  2662     0919                     _OSCCON1	set	2329
  2663     0E24                     _RXPPS	set	3620
  2664     0E9C                     _RB4PPS	set	3740
  2665     00FA                     STR_1:
  2666     00FA  3453               	retlw	83	;'S'
  2667     00FB  3469               	retlw	105	;'i'
  2668     00FC  3434               	retlw	52	;'4'
  2669     00FD  3434               	retlw	52	;'4'
  2670     00FE  3433               	retlw	51	;'3'
  2671     00FF  3478               	retlw	120	;'x'
  2672     0100  3420               	retlw	32	;' '
  2673     0101  3464               	retlw	100	;'d'
  2674     0102  3472               	retlw	114	;'r'
  2675     0103  3469               	retlw	105	;'i'
  2676     0104  3476               	retlw	118	;'v'
  2677     0105  3465               	retlw	101	;'e'
  2678     0106  3472               	retlw	114	;'r'
  2679     0107  3420               	retlw	32	;' '
  2680     0108  3465               	retlw	101	;'e'
  2681     0109  3478               	retlw	120	;'x'
  2682     010A  3461               	retlw	97	;'a'
  2683     010B  346D               	retlw	109	;'m'
  2684     010C  3470               	retlw	112	;'p'
  2685     010D  346C               	retlw	108	;'l'
  2686     010E  3465               	retlw	101	;'e'
  2687     010F  340D               	retlw	13
  2688     0110  340A               	retlw	10
  2689     0111  3400               	retlw	0
  2690                           
  2691                           	psect	stringtext2
  2692     0000                     __pstringtext2:
  2693                           
  2694                           	psect	cinit
  2695     0017                     start_initialization:	
  2696                           ; #config settings
  2697                           
  2698     0017                     __initialization:
  2699                           
  2700                           ; Clear objects allocated to BANK0
  2701     0017  3020               	movlw	low __pbssBANK0
  2702     0018  0084               	movwf	4
  2703     0019  3000               	movlw	high __pbssBANK0
  2704     001A  0085               	movwf	5
  2705     001B  302D               	movlw	45
  2706     001C  3181  21FB  3180   	fcall	clear_ram0
  2707     001F                     end_of_initialization:	
  2708                           ;End of C runtime variable initialization code
  2709                           
  2710     001F                     __end_of__initialization:
  2711     001F  107E               	bcf	int$flags,0	;clear compiler interrupt flag (level 1)
  2712     0020  0020               	movlb	0
  2713     0021  3181  29B4         	ljmp	_main	;jump to C main() function
  2714                           
  2715                           	psect	bssBANK0
  2716     0020                     __pbssBANK0:
  2717     0020                     _dbuf:
  2718     0020                     	ds	32
  2719     0040                     _width:
  2720     0040                     	ds	2
  2721     0042                     _prec:
  2722     0042                     	ds	2
  2723     0044                     _EUSART_OverrunErrorHandler:
  2724     0044                     	ds	2
  2725     0046                     _EUSART_FramingErrorHandler:
  2726     0046                     	ds	2
  2727     0048                     _eusartRxLastError:
  2728     0048                     	ds	2
  2729     004A                     _INT_InterruptHandler:
  2730     004A                     	ds	2
  2731     004C                     _flags:
  2732     004C                     	ds	1
  2733                           
  2734                           	psect	clrtext
  2735     01FB                     clear_ram0:	
  2736                           ;	Called with FSR0 containing the base address, and
  2737                           ;	WREG with the size to clear
  2738                           
  2739     01FB  0064               	clrwdt	;clear the watchdog before getting into this loop
  2740     01FC                     clrloop0:
  2741     01FC  0180               	clrf	0	;clear RAM location pointed to by FSR
  2742     01FD  3101               	addfsr 0,1
  2743     01FE  0B89               	decfsz	9,f	;Have we reached the end of clearing yet?
  2744     01FF  29FC               	goto	clrloop0	;have we reached the end yet?
  2745     0200  3400               	retlw	0	;all done for this memory range, return
  2746                           
  2747                           	psect	cstackCOMMON
  2748     0070                     __pcstackCOMMON:
  2749     0070                     ?_CLOCK_Initialize:
  2750     0070                     ??_CLOCK_Initialize:	
  2751                           ; 1 bytes @ 0x0
  2752                           
  2753     0070                     ?_PIN_MANAGER_Initialize:	
  2754                           ; 1 bytes @ 0x0
  2755                           
  2756     0070                     ??_PIN_MANAGER_Initialize:	
  2757                           ; 1 bytes @ 0x0
  2758                           
  2759     0070                     ?_EUSART_Initialize:	
  2760                           ; 1 bytes @ 0x0
  2761                           
  2762     0070                     ?_INTERRUPT_Initialize:	
  2763                           ; 1 bytes @ 0x0
  2764                           
  2765     0070                     ?_INT_SetInterruptHandler:	
  2766                           ; 1 bytes @ 0x0
  2767                           
  2768     0070                     ?_PIN_MANAGER_IOC:	
  2769                           ; 1 bytes @ 0x0
  2770                           
  2771     0070                     ??_PIN_MANAGER_IOC:	
  2772                           ; 1 bytes @ 0x0
  2773                           
  2774     0070                     ?_EUSART_Write:	
  2775                           ; 1 bytes @ 0x0
  2776                           
  2777     0070                     ?_EUSART_IsTxReady:	
  2778                           ; 1 bytes @ 0x0
  2779                           
  2780     0070                     ??_EUSART_IsTxReady:	
  2781                           ; 1 bytes @ 0x0
  2782                           
  2783     0070                     ?_EUSART_FramingErrorCallbackRegister:	
  2784                           ; 1 bytes @ 0x0
  2785                           
  2786     0070                     ?_EUSART_OverrunErrorCallbackRegister:	
  2787                           ; 1 bytes @ 0x0
  2788                           
  2789     0070                     ?_SYSTEM_Initialize:	
  2790                           ; 1 bytes @ 0x0
  2791                           
  2792     0070                     ?_INTERRUPT_InterruptManager:	
  2793                           ; 1 bytes @ 0x0
  2794                           
  2795     0070                     ??_INTERRUPT_InterruptManager:	
  2796                           ; 1 bytes @ 0x0
  2797                           
  2798     0070                     ?_putch:	
  2799                           ; 1 bytes @ 0x0
  2800                           
  2801     0070                     ?_main:	
  2802                           ; 1 bytes @ 0x0
  2803                           
  2804     0070                     _EUSART_IsTxReady$573:	
  2805                           ; 2 bytes @ 0x0
  2806                           
  2807     0070                     EUSART_Write@txData:	
  2808                           ; 1 bytes @ 0x0
  2809                           
  2810     0070                     INT_SetInterruptHandler@InterruptHandler:	
  2811                           ; 1 bytes @ 0x0
  2812                           
  2813     0070                     EUSART_FramingErrorCallbackRegister@callbackHandler:	
  2814                           ; 2 bytes @ 0x0
  2815                           
  2816     0070                     EUSART_OverrunErrorCallbackRegister@callbackHandler:	
  2817                           ; 2 bytes @ 0x0
  2818                           
  2819                           
  2820                           ; 2 bytes @ 0x0
  2821     0070                     	ds	1
  2822     0071                     ??_EUSART_Write:
  2823     0071                     ??_putch:	
  2824                           ; 1 bytes @ 0x1
  2825                           
  2826     0071                     putch@txData:	
  2827                           ; 1 bytes @ 0x1
  2828                           
  2829                           
  2830                           ; 1 bytes @ 0x1
  2831     0071                     	ds	1
  2832     0072                     ??_EUSART_Initialize:
  2833     0072                     ??_INTERRUPT_Initialize:	
  2834                           ; 1 bytes @ 0x2
  2835                           
  2836     0072                     ??_INT_SetInterruptHandler:	
  2837                           ; 1 bytes @ 0x2
  2838                           
  2839     0072                     ??_EUSART_FramingErrorCallbackRegister:	
  2840                           ; 1 bytes @ 0x2
  2841                           
  2842     0072                     ??_EUSART_OverrunErrorCallbackRegister:	
  2843                           ; 1 bytes @ 0x2
  2844                           
  2845     0072                     ??_SYSTEM_Initialize:	
  2846                           ; 1 bytes @ 0x2
  2847                           
  2848     0072                     ?_fputc:	
  2849                           ; 1 bytes @ 0x2
  2850                           
  2851     0072                     fputc@c:	
  2852                           ; 2 bytes @ 0x2
  2853                           
  2854                           
  2855                           ; 2 bytes @ 0x2
  2856     0072                     	ds	2
  2857     0074                     fputc@fp:
  2858                           
  2859                           ; 2 bytes @ 0x4
  2860     0074                     	ds	2
  2861     0076                     ??_fputc:
  2862                           
  2863                           ; 1 bytes @ 0x6
  2864     0076                     	ds	5
  2865     007B                     ??_vfprintf:
  2866                           
  2867                           ; 1 bytes @ 0xB
  2868     007B                     	ds	1
  2869     007C                     vfprintf@cfmt:
  2870                           
  2871                           ; 2 bytes @ 0xC
  2872     007C                     	ds	2
  2873     007E                     ??_printf:
  2874     007E                     ??_main:	
  2875                           ; 1 bytes @ 0xE
  2876                           
  2877                           
  2878                           	psect	cstackBANK0
  2879     004D                     __pcstackBANK0:	
  2880                           ; 1 bytes @ 0xE
  2881                           
  2882     004D                     ?_vfpfcnvrt:
  2883     004D                     vfpfcnvrt@fp:	
  2884                           ; 1 bytes @ 0x0
  2885                           
  2886                           
  2887                           ; 2 bytes @ 0x0
  2888     004D                     	ds	2
  2889     004F                     vfpfcnvrt@fmt:
  2890                           
  2891                           ; 1 bytes @ 0x2
  2892     004F                     	ds	1
  2893     0050                     vfpfcnvrt@ap:
  2894                           
  2895                           ; 1 bytes @ 0x3
  2896     0050                     	ds	1
  2897     0051                     ??_vfpfcnvrt:
  2898                           
  2899                           ; 1 bytes @ 0x4
  2900     0051                     	ds	4
  2901     0055                     ?_vfprintf:
  2902     0055                     vfprintf@fp:	
  2903                           ; 2 bytes @ 0x8
  2904                           
  2905                           
  2906                           ; 2 bytes @ 0x8
  2907     0055                     	ds	2
  2908     0057                     vfprintf@fmt:
  2909                           
  2910                           ; 2 bytes @ 0xA
  2911     0057                     	ds	2
  2912     0059                     vfprintf@ap:
  2913                           
  2914                           ; 1 bytes @ 0xC
  2915     0059                     	ds	1
  2916     005A                     ?_printf:
  2917     005A                     printf@fmt:	
  2918                           ; 2 bytes @ 0xD
  2919                           
  2920                           
  2921                           ; 2 bytes @ 0xD
  2922     005A                     	ds	2
  2923     005C                     printf@ap:
  2924                           
  2925                           ; 1 bytes @ 0xF
  2926     005C                     	ds	1
  2927                           
  2928                           	psect	maintext
  2929     01B4                     __pmaintext:	
  2930 ;;
  2931 ;;Main: autosize = 0, tempsize = 0, incstack = 0, save=0
  2932 ;;
  2933 ;; *************** function _main *****************
  2934 ;; Defined at:
  2935 ;;		line 39 in file "main.c"
  2936 ;; Parameters:    Size  Location     Type
  2937 ;;		None
  2938 ;; Auto vars:     Size  Location     Type
  2939 ;;		None
  2940 ;; Return value:  Size  Location     Type
  2941 ;;                  2  141[None  ] int 
  2942 ;; Registers used:
  2943 ;;		wreg, fsr0l, fsr0h, fsr1l, fsr1h, status,2, status,0, pclath, cstack
  2944 ;; Tracked objects:
  2945 ;;		On entry : B1F/0
  2946 ;;		On exit  : 0/0
  2947 ;;		Unchanged: 0/0
  2948 ;; Data sizes:     COMMON   BANK0   BANK1   BANK2   BANK3   BANK4   BANK5   BANK6   BANK7   BANK8   BANK9  BANK10  BANK1
      +1  BANK12  BANK13  BANK14  BANK15  BANK16  BANK17  BANK18  BANK19  BANK20  BANK21  BANK22  BANK23  BANK24  BANK25
  2949 ;;      Params:         0       0       0       0       0       0       0       0       0       0       0       0       
      +0       0       0       0       0       0       0       0       0       0       0       0       0       0       0
  2950 ;;      Locals:         0       0       0       0       0       0       0       0       0       0       0       0       
      +0       0       0       0       0       0       0       0       0       0       0       0       0       0       0
  2951 ;;      Temps:          0       0       0       0       0       0       0       0       0       0       0       0       
      +0       0       0       0       0       0       0       0       0       0       0       0       0       0       0
  2952 ;;      Totals:         0       0       0       0       0       0       0       0       0       0       0       0       
      +0       0       0       0       0       0       0       0       0       0       0       0       0       0       0
  2953 ;;Total ram usage:        0 bytes
  2954 ;; Hardware stack levels required when called: 8
  2955 ;; This function calls:
  2956 ;;		_SYSTEM_Initialize
  2957 ;;		_printf
  2958 ;; This function is called by:
  2959 ;;		Startup code after reset
  2960 ;; This function uses a non-reentrant model
  2961 ;;
  2962                           
  2963     01B4                     _main:	
  2964                           ;psect for function _main
  2965                           
  2966     01B4                     l1323:	
  2967                           ;incstack = 0
  2968                           ; Regs used in _main: [wreg-fsr1h+status,2+status,0+pclath+cstack]
  2969                           
  2970                           
  2971                           ;main.c: 41:     SYSTEM_Initialize();
  2972     01B4  3181  21C2  3181   	fcall	_SYSTEM_Initialize
  2973     01B7                     l1325:
  2974                           
  2975                           ;main.c: 58:     printf("Si443x driver example\r\n");
  2976     01B7  30FA               	movlw	low (STR_1| (0+32768))
  2977     01B8  0020               	movlb	0	; select bank0
  2978     01B9  00DA               	movwf	printf@fmt
  2979     01BA  3080               	movlw	high (STR_1| (0+32768))
  2980     01BB  00DB               	movwf	printf@fmt+1
  2981     01BC  3181  2186  3181   	fcall	_printf
  2982     01BF                     l142:	
  2983                           ;main.c: 60:     while(1)
  2984                           
  2985     01BF                     l143:	
  2986                           ;main.c: 61:     {;main.c: 62:     }
  2987                           
  2988     01BF  29BF               	goto	l142
  2989     01C0  3180  2815         	ljmp	start
  2990     01C2                     __end_of_main:
  2991                           
  2992                           	psect	text1
  2993     0186                     __ptext1:	
  2994 ;; *************** function _printf *****************
  2995 ;; Defined at:
  2996 ;;		line 5 in file "C:\Program Files\Microchip\xc8\v2.45\pic\sources\c99\common\printf.c"
  2997 ;; Parameters:    Size  Location     Type
  2998 ;;  fmt             2   13[BANK0 ] PTR const unsigned char 
  2999 ;;		 -> STR_1(24), 
  3000 ;; Auto vars:     Size  Location     Type
  3001 ;;  ret             2    0        int 
  3002 ;;  ap              1   15[BANK0 ] PTR void [1]
  3003 ;;		 -> ?_printf(2), 
  3004 ;; Return value:  Size  Location     Type
  3005 ;;                  2   13[BANK0 ] int 
  3006 ;; Registers used:
  3007 ;;		wreg, fsr0l, fsr0h, fsr1l, fsr1h, status,2, status,0, pclath, cstack
  3008 ;; Tracked objects:
  3009 ;;		On entry : 0/0
  3010 ;;		On exit  : 0/0
  3011 ;;		Unchanged: 0/0
  3012 ;; Data sizes:     COMMON   BANK0   BANK1   BANK2   BANK3   BANK4   BANK5   BANK6   BANK7   BANK8   BANK9  BANK10  BANK1
      +1  BANK12  BANK13  BANK14  BANK15  BANK16  BANK17  BANK18  BANK19  BANK20  BANK21  BANK22  BANK23  BANK24  BANK25
  3013 ;;      Params:         0       2       0       0       0       0       0       0       0       0       0       0       
      +0       0       0       0       0       0       0       0       0       0       0       0       0       0       0
  3014 ;;      Locals:         0       1       0       0       0       0       0       0       0       0       0       0       
      +0       0       0       0       0       0       0       0       0       0       0       0       0       0       0
  3015 ;;      Temps:          0       0       0       0       0       0       0       0       0       0       0       0       
      +0       0       0       0       0       0       0       0       0       0       0       0       0       0       0
  3016 ;;      Totals:         0       3       0       0       0       0       0       0       0       0       0       0       
      +0       0       0       0       0       0       0       0       0       0       0       0       0       0       0
  3017 ;;Total ram usage:        3 bytes
  3018 ;; Hardware stack levels used: 1
  3019 ;; Hardware stack levels required when called: 7
  3020 ;; This function calls:
  3021 ;;		_vfprintf
  3022 ;; This function is called by:
  3023 ;;		_main
  3024 ;; This function uses a non-reentrant model
  3025 ;;
  3026                           
  3027     0186                     _printf:	
  3028                           ;psect for function _printf
  3029                           
  3030     0186                     l1287:	
  3031                           ;incstack = 0
  3032                           ; Regs used in _printf: [wreg-fsr1h+status,2+status,0+pclath+cstack]
  3033                           
  3034     0186  305C               	movlw	(low ((?_printf| 0+2)))& (0+255)
  3035     0187  0020               	movlb	0	; select bank0
  3036     0188  00DC               	movwf	printf@ap
  3037     0189                     l1289:
  3038     0189  3000               	movlw	0
  3039     018A  00D5               	movwf	vfprintf@fp
  3040     018B  00D6               	movwf	vfprintf@fp+1
  3041     018C  085B               	movf	printf@fmt+1,w
  3042     018D  00D8               	movwf	vfprintf@fmt+1
  3043     018E  085A               	movf	printf@fmt,w
  3044     018F  00D7               	movwf	vfprintf@fmt
  3045     0190  305C               	movlw	(low (printf@ap| 0))& (0+255)
  3046     0191  00D9               	movwf	vfprintf@ap
  3047     0192  3181  214B  3181   	fcall	_vfprintf
  3048     0195                     l916:
  3049     0195  0008               	return
  3050     0196                     __end_of_printf:
  3051                           
  3052                           	psect	text2
  3053     014B                     __ptext2:	
  3054 ;; *************** function _vfprintf *****************
  3055 ;; Defined at:
  3056 ;;		line 1817 in file "C:\Program Files\Microchip\xc8\v2.45\pic\sources\c99\common\doprnt.c"
  3057 ;; Parameters:    Size  Location     Type
  3058 ;;  fp              2    8[BANK0 ] PTR struct _IO_FILE
  3059 ;;		 -> NULL(0), 
  3060 ;;  fmt             2   10[BANK0 ] PTR const unsigned char 
  3061 ;;		 -> STR_1(24), 
  3062 ;;  ap              1   12[BANK0 ] PTR PTR void 
  3063 ;;		 -> printf@ap(1), 
  3064 ;; Auto vars:     Size  Location     Type
  3065 ;;  cfmt            2   12[COMMON] PTR unsigned char 
  3066 ;;		 -> STR_1(24), 
  3067 ;; Return value:  Size  Location     Type
  3068 ;;                  2    8[BANK0 ] int 
  3069 ;; Registers used:
  3070 ;;		wreg, fsr0l, fsr0h, fsr1l, fsr1h, status,2, status,0, pclath, cstack
  3071 ;; Tracked objects:
  3072 ;;		On entry : 0/0
  3073 ;;		On exit  : 0/0
  3074 ;;		Unchanged: 0/0
  3075 ;; Data sizes:     COMMON   BANK0   BANK1   BANK2   BANK3   BANK4   BANK5   BANK6   BANK7   BANK8   BANK9  BANK10  BANK1
      +1  BANK12  BANK13  BANK14  BANK15  BANK16  BANK17  BANK18  BANK19  BANK20  BANK21  BANK22  BANK23  BANK24  BANK25
  3076 ;;      Params:         0       5       0       0       0       0       0       0       0       0       0       0       
      +0       0       0       0       0       0       0       0       0       0       0       0       0       0       0
  3077 ;;      Locals:         2       0       0       0       0       0       0       0       0       0       0       0       
      +0       0       0       0       0       0       0       0       0       0       0       0       0       0       0
  3078 ;;      Temps:          1       0       0       0       0       0       0       0       0       0       0       0       
      +0       0       0       0       0       0       0       0       0       0       0       0       0       0       0
  3079 ;;      Totals:         3       5       0       0       0       0       0       0       0       0       0       0       
      +0       0       0       0       0       0       0       0       0       0       0       0       0       0       0
  3080 ;;Total ram usage:        8 bytes
  3081 ;; Hardware stack levels used: 1
  3082 ;; Hardware stack levels required when called: 6
  3083 ;; This function calls:
  3084 ;;		_vfpfcnvrt
  3085 ;; This function is called by:
  3086 ;;		_printf
  3087 ;; This function uses a non-reentrant model
  3088 ;;
  3089                           
  3090     014B                     _vfprintf:	
  3091                           ;psect for function _vfprintf
  3092                           
  3093     014B                     l1275:	
  3094                           ;incstack = 0
  3095                           ; Regs used in _vfprintf: [wreg-fsr1h+status,2+status,0+pclath+cstack]
  3096                           
  3097                           
  3098                           ;C:\Program Files\Microchip\xc8\v2.45\pic\sources\c99\common\doprnt.c: 1817: int vfprint
      +                          f(FILE *fp, const char *fmt, va_list ap);C:\Program Files\Microchip\xc8\v2.45\pic\source
      +                          s\c99\common\doprnt.c: 1818: {;C:\Program Files\Microchip\xc8\v2.45\pic\sources\c99\comm
      +                          on\doprnt.c: 1820:     char *cfmt;;C:\Program Files\Microchip\xc8\v2.45\pic\sources\c99\
      +                          common\doprnt.c: 1822:     cfmt = (char *)fmt;
  3099     014B  0020               	movlb	0	; select bank0
  3100     014C  0858               	movf	vfprintf@fmt+1,w
  3101     014D  00FD               	movwf	vfprintf@cfmt+1
  3102     014E  0857               	movf	vfprintf@fmt,w
  3103     014F  00FC               	movwf	vfprintf@cfmt
  3104                           
  3105                           ;C:\Program Files\Microchip\xc8\v2.45\pic\sources\c99\common\doprnt.c: 1826:     while (
      +                          *cfmt) {
  3106     0150  295D               	goto	l1279
  3107     0151                     l1277:
  3108                           
  3109                           ;C:\Program Files\Microchip\xc8\v2.45\pic\sources\c99\common\doprnt.c: 1830:    vfpfcnvr
      +                          t(fp, &cfmt, ap);
  3110     0151  0020               	movlb	0	; select bank0
  3111     0152  0856               	movf	vfprintf@fp+1,w
  3112     0153  00CE               	movwf	vfpfcnvrt@fp+1
  3113     0154  0855               	movf	vfprintf@fp,w
  3114     0155  00CD               	movwf	vfpfcnvrt@fp
  3115     0156  307C               	movlw	(low (vfprintf@cfmt| 0))& (0+255)
  3116     0157  00CF               	movwf	vfpfcnvrt@fmt
  3117     0158  0859               	movf	vfprintf@ap,w
  3118     0159  00D0               	movwf	vfpfcnvrt@ap
  3119     015A  3180  2080  3181   	fcall	_vfpfcnvrt
  3120     015D                     l1279:
  3121                           
  3122                           ;C:\Program Files\Microchip\xc8\v2.45\pic\sources\c99\common\doprnt.c: 1826:     while (
      +                          *cfmt) {
  3123     015D  087C               	movf	vfprintf@cfmt,w
  3124     015E  0084               	movwf	4
  3125     015F  087D               	movf	vfprintf@cfmt+1,w
  3126     0160  0085               	movwf	5
  3127     0161  0012               	moviw fsr0++
  3128     0162  1D03               	btfss	3,2
  3129     0163  2965               	goto	u311
  3130     0164  2966               	goto	u310
  3131     0165                     u311:
  3132     0165  2951               	goto	l1277
  3133     0166                     u310:
  3134     0166                     l1281:
  3135                           
  3136                           ;C:\Program Files\Microchip\xc8\v2.45\pic\sources\c99\common\doprnt.c: 1835:  return 0;
  3137     0166  0020               	movlb	0	; select bank0
  3138     0167  01D5               	clrf	?_vfprintf
  3139     0168  01D6               	clrf	?_vfprintf+1
  3140     0169                     l945:
  3141     0169  0008               	return
  3142     016A                     __end_of_vfprintf:
  3143                           
  3144                           	psect	text3
  3145     0080                     __ptext3:	
  3146 ;; *************** function _vfpfcnvrt *****************
  3147 ;; Defined at:
  3148 ;;		line 1177 in file "C:\Program Files\Microchip\xc8\v2.45\pic\sources\c99\common\doprnt.c"
  3149 ;; Parameters:    Size  Location     Type
  3150 ;;  fp              2    0[BANK0 ] PTR struct _IO_FILE
  3151 ;;		 -> NULL(0), 
  3152 ;;  fmt             1    2[BANK0 ] PTR PTR unsigned char 
  3153 ;;		 -> vfprintf@cfmt(2), 
  3154 ;;  ap              1    3[BANK0 ] PTR PTR void 
  3155 ;;		 -> printf@ap(1), 
  3156 ;; Auto vars:     Size  Location     Type
  3157 ;;  cp              2    0        PTR unsigned char 
  3158 ;;  done            1    0        _Bool 
  3159 ;;  c               1    0        unsigned char 
  3160 ;; Return value:  Size  Location     Type
  3161 ;;                  1    wreg      void 
  3162 ;; Registers used:
  3163 ;;		wreg, fsr0l, fsr0h, fsr1l, fsr1h, status,2, status,0, pclath, cstack
  3164 ;; Tracked objects:
  3165 ;;		On entry : 0/0
  3166 ;;		On exit  : 0/0
  3167 ;;		Unchanged: 0/0
  3168 ;; Data sizes:     COMMON   BANK0   BANK1   BANK2   BANK3   BANK4   BANK5   BANK6   BANK7   BANK8   BANK9  BANK10  BANK1
      +1  BANK12  BANK13  BANK14  BANK15  BANK16  BANK17  BANK18  BANK19  BANK20  BANK21  BANK22  BANK23  BANK24  BANK25
  3169 ;;      Params:         0       4       0       0       0       0       0       0       0       0       0       0       
      +0       0       0       0       0       0       0       0       0       0       0       0       0       0       0
  3170 ;;      Locals:         0       0       0       0       0       0       0       0       0       0       0       0       
      +0       0       0       0       0       0       0       0       0       0       0       0       0       0       0
  3171 ;;      Temps:          0       4       0       0       0       0       0       0       0       0       0       0       
      +0       0       0       0       0       0       0       0       0       0       0       0       0       0       0
  3172 ;;      Totals:         0       8       0       0       0       0       0       0       0       0       0       0       
      +0       0       0       0       0       0       0       0       0       0       0       0       0       0       0
  3173 ;;Total ram usage:        8 bytes
  3174 ;; Hardware stack levels used: 1
  3175 ;; Hardware stack levels required when called: 5
  3176 ;; This function calls:
  3177 ;;		_fputc
  3178 ;; This function is called by:
  3179 ;;		_vfprintf
  3180 ;; This function uses a non-reentrant model
  3181 ;;
  3182                           
  3183     0080                     _vfpfcnvrt:	
  3184                           ;psect for function _vfpfcnvrt
  3185                           
  3186     0080                     l1243:	
  3187                           ;incstack = 0
  3188                           ; Regs used in _vfpfcnvrt: [wreg-fsr1h+status,2+status,0+pclath+cstack]
  3189                           
  3190                           
  3191                           ;C:\Program Files\Microchip\xc8\v2.45\pic\sources\c99\common\doprnt.c: 1177: vfpfcnvrt(F
      +                          ILE *fp, char *fmt[], va_list ap);C:\Program Files\Microchip\xc8\v2.45\pic\sources\c99\c
      +                          ommon\doprnt.c: 1178: {;C:\Program Files\Microchip\xc8\v2.45\pic\sources\c99\common\dopr
      +                          nt.c: 1179:     char c, *cp;;C:\Program Files\Microchip\xc8\v2.45\pic\sources\c99\common
      +                          \doprnt.c: 1180:     _Bool done;;C:\Program Files\Microchip\xc8\v2.45\pic\sources\c99\co
      +                          mmon\doprnt.c: 1201:     if ((*fmt)[0] == '%') {
  3192     0080  0020               	movlb	0	; select bank0
  3193     0081  084F               	movf	vfpfcnvrt@fmt,w
  3194     0082  0086               	movwf	6
  3195     0083  0187               	clrf	7
  3196     0084  3F40               	moviw [0]fsr1
  3197     0085  00D1               	movwf	??_vfpfcnvrt
  3198     0086  3F41               	moviw [1]fsr1
  3199     0087  00D2               	movwf	??_vfpfcnvrt+1
  3200     0088  0851               	movf	??_vfpfcnvrt,w
  3201     0089  0084               	movwf	4
  3202     008A  0852               	movf	??_vfpfcnvrt+1,w
  3203     008B  0085               	movwf	5
  3204     008C  0012               	moviw fsr0++
  3205     008D  3A25               	xorlw	37
  3206     008E  1D03               	btfss	3,2
  3207     008F  2891               	goto	u301
  3208     0090  2892               	goto	u300
  3209     0091                     u301:
  3210     0091  28AF               	goto	l1255
  3211     0092                     u300:
  3212     0092                     l1245:
  3213                           
  3214                           ;C:\Program Files\Microchip\xc8\v2.45\pic\sources\c99\common\doprnt.c: 1202:         ++*
      +                          fmt;
  3215     0092  084F               	movf	vfpfcnvrt@fmt,w
  3216     0093  0086               	movwf	6
  3217     0094  0187               	clrf	7
  3218     0095  3001               	movlw	1
  3219     0096  0781               	addwf	1,f
  3220     0097  3141               	addfsr 1,1
  3221     0098  1803               	skipnc
  3222     0099  0A81               	incf	1,f
  3223     009A                     l1247:
  3224                           
  3225                           ;C:\Program Files\Microchip\xc8\v2.45\pic\sources\c99\common\doprnt.c: 1204:         fla
      +                          gs = width = 0;
  3226     009A  01C0               	clrf	_width
  3227     009B  01C1               	clrf	_width+1
  3228     009C  1003               	clrc
  3229     009D  3000               	movlw	0
  3230     009E  1803               	btfsc	3,0
  3231     009F  3001               	movlw	1
  3232     00A0  00CC               	movwf	_flags
  3233     00A1                     l1249:
  3234                           
  3235                           ;C:\Program Files\Microchip\xc8\v2.45\pic\sources\c99\common\doprnt.c: 1205:         pre
      +                          c = -1;
  3236     00A1  30FF               	movlw	255
  3237     00A2  00C2               	movwf	_prec
  3238     00A3  30FF               	movlw	255
  3239     00A4  00C3               	movwf	_prec+1
  3240     00A5                     l1251:
  3241                           
  3242                           ;C:\Program Files\Microchip\xc8\v2.45\pic\sources\c99\common\doprnt.c: 1806:         ++*
      +                          fmt;
  3243     00A5  0020               	movlb	0	; select bank0
  3244     00A6  084F               	movf	vfpfcnvrt@fmt,w
  3245     00A7  0086               	movwf	6
  3246     00A8  0187               	clrf	7
  3247     00A9  3001               	movlw	1
  3248     00AA  0781               	addwf	1,f
  3249     00AB  3141               	addfsr 1,1
  3250     00AC  1803               	skipnc
  3251     00AD  0A81               	incf	1,f
  3252     00AE  28C9               	goto	l939
  3253     00AF                     l1255:
  3254                           
  3255                           ;C:\Program Files\Microchip\xc8\v2.45\pic\sources\c99\common\doprnt.c: 1811:     fputc((
      +                          int)(*fmt)[0], fp);
  3256     00AF  084F               	movf	vfpfcnvrt@fmt,w
  3257     00B0  0086               	movwf	6
  3258     00B1  0187               	clrf	7
  3259     00B2  3F40               	moviw [0]fsr1
  3260     00B3  00D1               	movwf	??_vfpfcnvrt
  3261     00B4  3F41               	moviw [1]fsr1
  3262     00B5  00D2               	movwf	??_vfpfcnvrt+1
  3263     00B6  0851               	movf	??_vfpfcnvrt,w
  3264     00B7  0084               	movwf	4
  3265     00B8  0852               	movf	??_vfpfcnvrt+1,w
  3266     00B9  0085               	movwf	5
  3267     00BA  0800               	movf	0,w	;code access
  3268     00BB  00D3               	movwf	??_vfpfcnvrt+2
  3269     00BC  01D4               	clrf	??_vfpfcnvrt+3
  3270     00BD  0853               	movf	??_vfpfcnvrt+2,w
  3271     00BE  00F2               	movwf	fputc@c
  3272     00BF  0854               	movf	??_vfpfcnvrt+3,w
  3273     00C0  00F3               	movwf	fputc@c+1
  3274     00C1  084E               	movf	vfpfcnvrt@fp+1,w
  3275     00C2  00F5               	movwf	fputc@fp+1
  3276     00C3  084D               	movf	vfpfcnvrt@fp,w
  3277     00C4  00F4               	movwf	fputc@fp
  3278     00C5  3180  2023  3180   	fcall	_fputc
  3279     00C8  28A5               	goto	l1251
  3280     00C9                     l939:
  3281     00C9  0008               	return
  3282     00CA                     __end_of_vfpfcnvrt:
  3283                           
  3284                           	psect	text4
  3285     0023                     __ptext4:	
  3286 ;; *************** function _fputc *****************
  3287 ;; Defined at:
  3288 ;;		line 8 in file "C:\Program Files\Microchip\xc8\v2.45\pic\sources\c99\common\nf_fputc.c"
  3289 ;; Parameters:    Size  Location     Type
  3290 ;;  c               2    2[COMMON] int 
  3291 ;;  fp              2    4[COMMON] PTR struct _IO_FILE
  3292 ;;		 -> NULL(0), 
  3293 ;; Auto vars:     Size  Location     Type
  3294 ;;		None
  3295 ;; Return value:  Size  Location     Type
  3296 ;;                  2    2[COMMON] int 
  3297 ;; Registers used:
  3298 ;;		wreg, fsr0l, fsr0h, fsr1l, fsr1h, status,2, status,0, pclath, cstack
  3299 ;; Tracked objects:
  3300 ;;		On entry : 0/0
  3301 ;;		On exit  : 0/0
  3302 ;;		Unchanged: 0/0
  3303 ;; Data sizes:     COMMON   BANK0   BANK1   BANK2   BANK3   BANK4   BANK5   BANK6   BANK7   BANK8   BANK9  BANK10  BANK1
      +1  BANK12  BANK13  BANK14  BANK15  BANK16  BANK17  BANK18  BANK19  BANK20  BANK21  BANK22  BANK23  BANK24  BANK25
  3304 ;;      Params:         4       0       0       0       0       0       0       0       0       0       0       0       
      +0       0       0       0       0       0       0       0       0       0       0       0       0       0       0
  3305 ;;      Locals:         0       0       0       0       0       0       0       0       0       0       0       0       
      +0       0       0       0       0       0       0       0       0       0       0       0       0       0       0
  3306 ;;      Temps:          5       0       0       0       0       0       0       0       0       0       0       0       
      +0       0       0       0       0       0       0       0       0       0       0       0       0       0       0
  3307 ;;      Totals:         9       0       0       0       0       0       0       0       0       0       0       0       
      +0       0       0       0       0       0       0       0       0       0       0       0       0       0       0
  3308 ;;Total ram usage:        9 bytes
  3309 ;; Hardware stack levels used: 1
  3310 ;; Hardware stack levels required when called: 4
  3311 ;; This function calls:
  3312 ;;		_putch
  3313 ;; This function is called by:
  3314 ;;		_vfpfcnvrt
  3315 ;; This function uses a non-reentrant model
  3316 ;;
  3317                           
  3318     0023                     _fputc:	
  3319                           ;psect for function _fputc
  3320                           
  3321     0023                     l1217:	
  3322                           ;incstack = 0
  3323                           ; Regs used in _fputc: [wreg-fsr1h+status,2+status,0+pclath+cstack]
  3324                           
  3325     0023  0874               	movf	fputc@fp,w
  3326     0024  0475               	iorwf	fputc@fp+1,w
  3327     0025  1903               	btfsc	3,2
  3328     0026  2828               	goto	u241
  3329     0027  2829               	goto	u240
  3330     0028                     u241:
  3331     0028  282F               	goto	l1221
  3332     0029                     u240:
  3333     0029                     l1219:
  3334     0029  0874               	movf	fputc@fp,w
  3335     002A  0475               	iorwf	fputc@fp+1,w
  3336     002B  1D03               	btfss	3,2
  3337     002C  282E               	goto	u251
  3338     002D  282F               	goto	u250
  3339     002E                     u251:
  3340     002E  2834               	goto	l1223
  3341     002F                     u250:
  3342     002F                     l1221:
  3343     002F  0872               	movf	fputc@c,w
  3344     0030  3181  2196  3180   	fcall	_putch
  3345     0033  287F               	goto	l957
  3346     0034                     l1223:
  3347     0034  0874               	movf	fputc@fp,w
  3348     0035  0086               	movwf	6
  3349     0036  0875               	movf	fputc@fp+1,w
  3350     0037  0087               	movwf	7
  3351     0038  3149               	addfsr 1,9
  3352     0039  0016               	moviw fsr1++
  3353     003A  0401               	iorwf	1,w
  3354     003B  1903               	btfsc	3,2
  3355     003C  283E               	goto	u261
  3356     003D  283F               	goto	u260
  3357     003E                     u261:
  3358     003E  285F               	goto	l1227
  3359     003F                     u260:
  3360     003F                     l1225:
  3361     003F  0874               	movf	fputc@fp,w
  3362     0040  0086               	movwf	6
  3363     0041  0875               	movf	fputc@fp+1,w
  3364     0042  0087               	movwf	7
  3365     0043  3149               	addfsr 1,9
  3366     0044  3F40               	moviw [0]fsr1
  3367     0045  00F6               	movwf	??_fputc
  3368     0046  3F41               	moviw [1]fsr1
  3369     0047  00F7               	movwf	??_fputc+1
  3370     0048  0874               	movf	fputc@fp,w
  3371     0049  0086               	movwf	6
  3372     004A  0875               	movf	fputc@fp+1,w
  3373     004B  0087               	movwf	7
  3374     004C  3142               	addfsr 1,2
  3375     004D  3F40               	moviw [0]fsr1
  3376     004E  00F8               	movwf	??_fputc+2
  3377     004F  3F41               	moviw [1]fsr1
  3378     0050  00F9               	movwf	??_fputc+3
  3379     0051  0879               	movf	??_fputc+3,w
  3380     0052  3A80               	xorlw	128
  3381     0053  00FA               	movwf	??_fputc+4
  3382     0054  0877               	movf	??_fputc+1,w
  3383     0055  3A80               	xorlw	128
  3384     0056  027A               	subwf	??_fputc+4,w
  3385     0057  1D03               	skipz
  3386     0058  285B               	goto	u275
  3387     0059  0876               	movf	??_fputc,w
  3388     005A  0278               	subwf	??_fputc+2,w
  3389     005B                     u275:
  3390     005B  1803               	skipnc
  3391     005C  285E               	goto	u271
  3392     005D  285F               	goto	u270
  3393     005E                     u271:
  3394     005E  287F               	goto	l957
  3395     005F                     u270:
  3396     005F                     l1227:
  3397     005F  0874               	movf	fputc@fp,w
  3398     0060  0086               	movwf	6
  3399     0061  0875               	movf	fputc@fp+1,w
  3400     0062  0087               	movwf	7
  3401     0063  3142               	addfsr 1,2
  3402     0064  0874               	movf	fputc@fp,w
  3403     0065  0084               	movwf	4
  3404     0066  0875               	movf	fputc@fp+1,w
  3405     0067  0085               	movwf	5
  3406     0068  3F40               	moviw [0]fsr1
  3407     0069  0700               	addwf	0,w
  3408     006A  00F6               	movwf	??_fputc
  3409     006B  3101               	addfsr 0,1
  3410     006C  3F41               	moviw [1]fsr1
  3411     006D  3D00               	addwfc	0,w
  3412     006E  00F7               	movwf	??_fputc+1
  3413     006F  0876               	movf	??_fputc,w
  3414     0070  0086               	movwf	6
  3415     0071  0877               	movf	??_fputc+1,w
  3416     0072  0087               	movwf	7
  3417     0073  0872               	movf	fputc@c,w
  3418     0074  0081               	movwf	1
  3419     0075                     l1229:
  3420     0075  0874               	movf	fputc@fp,w
  3421     0076  0086               	movwf	6
  3422     0077  0875               	movf	fputc@fp+1,w
  3423     0078  0087               	movwf	7
  3424     0079  3142               	addfsr 1,2
  3425     007A  3001               	movlw	1
  3426     007B  0781               	addwf	1,f
  3427     007C  3141               	addfsr 1,1
  3428     007D  1803               	skipnc
  3429     007E  0A81               	incf	1,f
  3430     007F                     l957:
  3431     007F  0008               	return
  3432     0080                     __end_of_fputc:
  3433                           
  3434                           	psect	text5
  3435     0196                     __ptext5:	
  3436 ;; *************** function _putch *****************
  3437 ;; Defined at:
  3438 ;;		line 246 in file "mcc_generated_files/uart/src/eusart.c"
  3439 ;; Parameters:    Size  Location     Type
  3440 ;;  txData          1    wreg     unsigned char 
  3441 ;; Auto vars:     Size  Location     Type
  3442 ;;  txData          1    1[COMMON] unsigned char 
  3443 ;; Return value:  Size  Location     Type
  3444 ;;                  1    wreg      void 
  3445 ;; Registers used:
  3446 ;;		wreg, status,2, status,0, pclath, cstack
  3447 ;; Tracked objects:
  3448 ;;		On entry : 0/0
  3449 ;;		On exit  : 0/0
  3450 ;;		Unchanged: 0/0
  3451 ;; Data sizes:     COMMON   BANK0   BANK1   BANK2   BANK3   BANK4   BANK5   BANK6   BANK7   BANK8   BANK9  BANK10  BANK1
      +1  BANK12  BANK13  BANK14  BANK15  BANK16  BANK17  BANK18  BANK19  BANK20  BANK21  BANK22  BANK23  BANK24  BANK25
  3452 ;;      Params:         0       0       0       0       0       0       0       0       0       0       0       0       
      +0       0       0       0       0       0       0       0       0       0       0       0       0       0       0
  3453 ;;      Locals:         1       0       0       0       0       0       0       0       0       0       0       0       
      +0       0       0       0       0       0       0       0       0       0       0       0       0       0       0
  3454 ;;      Temps:          0       0       0       0       0       0       0       0       0       0       0       0       
      +0       0       0       0       0       0       0       0       0       0       0       0       0       0       0
  3455 ;;      Totals:         1       0       0       0       0       0       0       0       0       0       0       0       
      +0       0       0       0       0       0       0       0       0       0       0       0       0       0       0
  3456 ;;Total ram usage:        1 bytes
  3457 ;; Hardware stack levels used: 1
  3458 ;; Hardware stack levels required when called: 3
  3459 ;; This function calls:
  3460 ;;		_EUSART_IsTxReady
  3461 ;;		_EUSART_Write
  3462 ;; This function is called by:
  3463 ;;		_fputc
  3464 ;; This function uses a non-reentrant model
  3465 ;;
  3466                           
  3467     0196                     _putch:	
  3468                           ;psect for function _putch
  3469                           
  3470                           
  3471                           ;incstack = 0
  3472                           ; Regs used in _putch: [wreg+status,2+status,0+pclath+cstack]
  3473                           ;putch@txData stored from wreg
  3474     0196  00F1               	movwf	putch@txData
  3475     0197                     l1209:
  3476     0197                     l1211:	
  3477                           ;mcc_generated_files/uart/src/eusart.c: 246: void putch(char txData);mcc_generated_files
      +                          /uart/src/eusart.c: 247: {;mcc_generated_files/uart/src/eusart.c: 248:     while(!(EUSAR
      +                          T_IsTxReady()));
  3478                           
  3479     0197  3181  21A5  3181   	fcall	_EUSART_IsTxReady
  3480     019A  3A00               	xorlw	0
  3481     019B  1903               	skipnz
  3482     019C  299E               	goto	u231
  3483     019D  299F               	goto	u230
  3484     019E                     u231:
  3485     019E  2997               	goto	l1211
  3486     019F                     u230:
  3487     019F                     l1213:
  3488                           
  3489                           ;mcc_generated_files/uart/src/eusart.c: 249:     return EUSART_Write(txData);;	Return va
      +                          lue of _putch is never used
  3490     019F  0871               	movf	putch@txData,w
  3491     01A0  00F0               	movwf	EUSART_Write@txData
  3492     01A1  3182  2207  3181   	fcall	_EUSART_Write
  3493     01A4                     l287:
  3494     01A4  0008               	return
  3495     01A5                     __end_of_putch:
  3496                           
  3497                           	psect	text6
  3498     0207                     __ptext6:	
  3499 ;; *************** function _EUSART_Write *****************
  3500 ;; Defined at:
  3501 ;;		line 235 in file "mcc_generated_files/uart/src/eusart.c"
  3502 ;; Parameters:    Size  Location     Type
  3503 ;;  txData          1    0[COMMON] unsigned char 
  3504 ;; Auto vars:     Size  Location     Type
  3505 ;;		None
  3506 ;; Return value:  Size  Location     Type
  3507 ;;                  1    wreg      void 
  3508 ;; Registers used:
  3509 ;;		wreg
  3510 ;; Tracked objects:
  3511 ;;		On entry : 0/0
  3512 ;;		On exit  : 0/0
  3513 ;;		Unchanged: 0/0
  3514 ;; Data sizes:     COMMON   BANK0   BANK1   BANK2   BANK3   BANK4   BANK5   BANK6   BANK7   BANK8   BANK9  BANK10  BANK1
      +1  BANK12  BANK13  BANK14  BANK15  BANK16  BANK17  BANK18  BANK19  BANK20  BANK21  BANK22  BANK23  BANK24  BANK25
  3515 ;;      Params:         1       0       0       0       0       0       0       0       0       0       0       0       
      +0       0       0       0       0       0       0       0       0       0       0       0       0       0       0
  3516 ;;      Locals:         0       0       0       0       0       0       0       0       0       0       0       0       
      +0       0       0       0       0       0       0       0       0       0       0       0       0       0       0
  3517 ;;      Temps:          0       0       0       0       0       0       0       0       0       0       0       0       
      +0       0       0       0       0       0       0       0       0       0       0       0       0       0       0
  3518 ;;      Totals:         1       0       0       0       0       0       0       0       0       0       0       0       
      +0       0       0       0       0       0       0       0       0       0       0       0       0       0       0
  3519 ;;Total ram usage:        1 bytes
  3520 ;; Hardware stack levels used: 1
  3521 ;; Hardware stack levels required when called: 2
  3522 ;; This function calls:
  3523 ;;		Nothing
  3524 ;; This function is called by:
  3525 ;;		_putch
  3526 ;; This function uses a non-reentrant model
  3527 ;;
  3528                           
  3529     0207                     _EUSART_Write:	
  3530                           ;psect for function _EUSART_Write
  3531                           
  3532     0207                     l1207:	
  3533                           ;incstack = 0
  3534                           ; Regs used in _EUSART_Write: [wreg]
  3535                           
  3536                           
  3537                           ;mcc_generated_files/uart/src/eusart.c: 235: void EUSART_Write(uint8_t txData);mcc_gener
      +                          ated_files/uart/src/eusart.c: 236: {;mcc_generated_files/uart/src/eusart.c: 237:     TX1
      +                          REG = txData;
  3538     0207  0870               	movf	EUSART_Write@txData,w
  3539     0208  0023               	movlb	3	; select bank3
  3540     0209  009A               	movwf	26	;volatile
  3541     020A                     l275:
  3542     020A  0008               	return
  3543     020B                     __end_of_EUSART_Write:
  3544                           
  3545                           	psect	text7
  3546     01A5                     __ptext7:	
  3547 ;; *************** function _EUSART_IsTxReady *****************
  3548 ;; Defined at:
  3549 ;;		line 198 in file "mcc_generated_files/uart/src/eusart.c"
  3550 ;; Parameters:    Size  Location     Type
  3551 ;;		None
  3552 ;; Auto vars:     Size  Location     Type
  3553 ;;		None
  3554 ;; Return value:  Size  Location     Type
  3555 ;;                  1    wreg      _Bool 
  3556 ;; Registers used:
  3557 ;;		wreg, status,2
  3558 ;; Tracked objects:
  3559 ;;		On entry : 0/0
  3560 ;;		On exit  : 0/0
  3561 ;;		Unchanged: 0/0
  3562 ;; Data sizes:     COMMON   BANK0   BANK1   BANK2   BANK3   BANK4   BANK5   BANK6   BANK7   BANK8   BANK9  BANK10  BANK1
      +1  BANK12  BANK13  BANK14  BANK15  BANK16  BANK17  BANK18  BANK19  BANK20  BANK21  BANK22  BANK23  BANK24  BANK25
  3563 ;;      Params:         0       0       0       0       0       0       0       0       0       0       0       0       
      +0       0       0       0       0       0       0       0       0       0       0       0       0       0       0
  3564 ;;      Locals:         1       0       0       0       0       0       0       0       0       0       0       0       
      +0       0       0       0       0       0       0       0       0       0       0       0       0       0       0
  3565 ;;      Temps:          0       0       0       0       0       0       0       0       0       0       0       0       
      +0       0       0       0       0       0       0       0       0       0       0       0       0       0       0
  3566 ;;      Totals:         1       0       0       0       0       0       0       0       0       0       0       0       
      +0       0       0       0       0       0       0       0       0       0       0       0       0       0       0
  3567 ;;Total ram usage:        1 bytes
  3568 ;; Hardware stack levels used: 1
  3569 ;; Hardware stack levels required when called: 2
  3570 ;; This function calls:
  3571 ;;		Nothing
  3572 ;; This function is called by:
  3573 ;;		_putch
  3574 ;; This function uses a non-reentrant model
  3575 ;;
  3576                           
  3577     01A5                     _EUSART_IsTxReady:	
  3578                           ;psect for function _EUSART_IsTxReady
  3579                           
  3580     01A5                     l1195:	
  3581                           ;incstack = 0
  3582                           ; Regs used in _EUSART_IsTxReady: [wreg+status,2]
  3583                           
  3584                           
  3585                           ;mcc_generated_files/uart/src/eusart.c: 200:     return (_Bool)(PIR1bits.TXIF && TX1STAb
      +                          its.TXEN);
  3586     01A5  01F0               	clrf	_EUSART_IsTxReady$573
  3587     01A6                     l1197:
  3588     01A6  0020               	movlb	0	; select bank0
  3589     01A7  1E11               	btfss	17,4	;volatile
  3590     01A8  29AA               	goto	u211
  3591     01A9  29AB               	goto	u210
  3592     01AA                     u211:
  3593     01AA  29B2               	goto	l1203
  3594     01AB                     u210:
  3595     01AB                     l1199:
  3596     01AB  0023               	movlb	3	; select bank3
  3597     01AC  1E9E               	btfss	30,5	;volatile
  3598     01AD  29AF               	goto	u221
  3599     01AE  29B0               	goto	u220
  3600     01AF                     u221:
  3601     01AF  29B2               	goto	l1203
  3602     01B0                     u220:
  3603     01B0                     l1201:
  3604     01B0  01F0               	clrf	_EUSART_IsTxReady$573
  3605     01B1  0AF0               	incf	_EUSART_IsTxReady$573,f
  3606     01B2                     l1203:
  3607     01B2  0870               	movf	_EUSART_IsTxReady$573,w
  3608     01B3                     l259:
  3609     01B3  0008               	return
  3610     01B4                     __end_of_EUSART_IsTxReady:
  3611                           
  3612                           	psect	text8
  3613     01C2                     __ptext8:	
  3614 ;; *************** function _SYSTEM_Initialize *****************
  3615 ;; Defined at:
  3616 ;;		line 37 in file "mcc_generated_files/system/src/system.c"
  3617 ;; Parameters:    Size  Location     Type
  3618 ;;		None
  3619 ;; Auto vars:     Size  Location     Type
  3620 ;;		None
  3621 ;; Return value:  Size  Location     Type
  3622 ;;                  1    wreg      void 
  3623 ;; Registers used:
  3624 ;;		wreg, status,2, status,0, pclath, cstack
  3625 ;; Tracked objects:
  3626 ;;		On entry : 0/0
  3627 ;;		On exit  : 0/0
  3628 ;;		Unchanged: 0/0
  3629 ;; Data sizes:     COMMON   BANK0   BANK1   BANK2   BANK3   BANK4   BANK5   BANK6   BANK7   BANK8   BANK9  BANK10  BANK1
      +1  BANK12  BANK13  BANK14  BANK15  BANK16  BANK17  BANK18  BANK19  BANK20  BANK21  BANK22  BANK23  BANK24  BANK25
  3630 ;;      Params:         0       0       0       0       0       0       0       0       0       0       0       0       
      +0       0       0       0       0       0       0       0       0       0       0       0       0       0       0
  3631 ;;      Locals:         0       0       0       0       0       0       0       0       0       0       0       0       
      +0       0       0       0       0       0       0       0       0       0       0       0       0       0       0
  3632 ;;      Temps:          0       0       0       0       0       0       0       0       0       0       0       0       
      +0       0       0       0       0       0       0       0       0       0       0       0       0       0       0
  3633 ;;      Totals:         0       0       0       0       0       0       0       0       0       0       0       0       
      +0       0       0       0       0       0       0       0       0       0       0       0       0       0       0
  3634 ;;Total ram usage:        0 bytes
  3635 ;; Hardware stack levels used: 1
  3636 ;; Hardware stack levels required when called: 4
  3637 ;; This function calls:
  3638 ;;		_CLOCK_Initialize
  3639 ;;		_EUSART_Initialize
  3640 ;;		_INTERRUPT_Initialize
  3641 ;;		_PIN_MANAGER_Initialize
  3642 ;; This function is called by:
  3643 ;;		_main
  3644 ;; This function uses a non-reentrant model
  3645 ;;
  3646                           
  3647     01C2                     _SYSTEM_Initialize:	
  3648                           ;psect for function _SYSTEM_Initialize
  3649                           
  3650     01C2                     l1285:	
  3651                           ;incstack = 0
  3652                           ; Regs used in _SYSTEM_Initialize: [wreg+status,2+status,0+pclath+cstack]
  3653                           
  3654                           
  3655                           ;mcc_generated_files/system/src/system.c: 39:     CLOCK_Initialize();
  3656     01C2  3181  21F2  3181   	fcall	_CLOCK_Initialize
  3657                           
  3658                           ;mcc_generated_files/system/src/system.c: 40:     PIN_MANAGER_Initialize();
  3659     01C5  3181  2112  3181   	fcall	_PIN_MANAGER_Initialize
  3660                           
  3661                           ;mcc_generated_files/system/src/system.c: 41:     EUSART_Initialize();
  3662     01C8  3181  216A  3181   	fcall	_EUSART_Initialize
  3663                           
  3664                           ;mcc_generated_files/system/src/system.c: 42:     INTERRUPT_Initialize();
  3665     01CB  3181  21E7  3181   	fcall	_INTERRUPT_Initialize
  3666     01CE                     l11:
  3667     01CE  0008               	return
  3668     01CF                     __end_of_SYSTEM_Initialize:
  3669                           
  3670                           	psect	text9
  3671     0112                     __ptext9:	
  3672 ;; *************** function _PIN_MANAGER_Initialize *****************
  3673 ;; Defined at:
  3674 ;;		line 38 in file "mcc_generated_files/system/src/pins.c"
  3675 ;; Parameters:    Size  Location     Type
  3676 ;;		None
  3677 ;; Auto vars:     Size  Location     Type
  3678 ;;		None
  3679 ;; Return value:  Size  Location     Type
  3680 ;;                  1    wreg      void 
  3681 ;; Registers used:
  3682 ;;		wreg, status,2
  3683 ;; Tracked objects:
  3684 ;;		On entry : 0/0
  3685 ;;		On exit  : 0/0
  3686 ;;		Unchanged: 0/0
  3687 ;; Data sizes:     COMMON   BANK0   BANK1   BANK2   BANK3   BANK4   BANK5   BANK6   BANK7   BANK8   BANK9  BANK10  BANK1
      +1  BANK12  BANK13  BANK14  BANK15  BANK16  BANK17  BANK18  BANK19  BANK20  BANK21  BANK22  BANK23  BANK24  BANK25
  3688 ;;      Params:         0       0       0       0       0       0       0       0       0       0       0       0       
      +0       0       0       0       0       0       0       0       0       0       0       0       0       0       0
  3689 ;;      Locals:         0       0       0       0       0       0       0       0       0       0       0       0       
      +0       0       0       0       0       0       0       0       0       0       0       0       0       0       0
  3690 ;;      Temps:          0       0       0       0       0       0       0       0       0       0       0       0       
      +0       0       0       0       0       0       0       0       0       0       0       0       0       0       0
  3691 ;;      Totals:         0       0       0       0       0       0       0       0       0       0       0       0       
      +0       0       0       0       0       0       0       0       0       0       0       0       0       0       0
  3692 ;;Total ram usage:        0 bytes
  3693 ;; Hardware stack levels used: 1
  3694 ;; Hardware stack levels required when called: 2
  3695 ;; This function calls:
  3696 ;;		Nothing
  3697 ;; This function is called by:
  3698 ;;		_SYSTEM_Initialize
  3699 ;; This function uses a non-reentrant model
  3700 ;;
  3701                           
  3702     0112                     _PIN_MANAGER_Initialize:	
  3703                           ;psect for function _PIN_MANAGER_Initialize
  3704                           
  3705     0112                     l1041:	
  3706                           ;incstack = 0
  3707                           ; Regs used in _PIN_MANAGER_Initialize: [wreg+status,2]
  3708                           
  3709                           
  3710                           ;mcc_generated_files/system/src/pins.c: 43:     LATA = 0x0;
  3711     0112  0022               	movlb	2	; select bank2
  3712     0113  018C               	clrf	12	;volatile
  3713                           
  3714                           ;mcc_generated_files/system/src/pins.c: 44:     LATB = 0x0;
  3715     0114  018D               	clrf	13	;volatile
  3716                           
  3717                           ;mcc_generated_files/system/src/pins.c: 45:     LATC = 0x0;
  3718     0115  018E               	clrf	14	;volatile
  3719     0116                     l1043:
  3720                           
  3721                           ;mcc_generated_files/system/src/pins.c: 50:     TRISA = 0x3F;
  3722     0116  303F               	movlw	63
  3723     0117  0021               	movlb	1	; select bank1
  3724     0118  008C               	movwf	12	;volatile
  3725     0119                     l1045:
  3726                           
  3727                           ;mcc_generated_files/system/src/pins.c: 51:     TRISB = 0xE0;
  3728     0119  30E0               	movlw	224
  3729     011A  008D               	movwf	13	;volatile
  3730     011B                     l1047:
  3731                           
  3732                           ;mcc_generated_files/system/src/pins.c: 52:     TRISC = 0xFF;
  3733     011B  30FF               	movlw	255
  3734     011C  008E               	movwf	14	;volatile
  3735     011D                     l1049:
  3736                           
  3737                           ;mcc_generated_files/system/src/pins.c: 57:     ANSELA = 0x37;
  3738     011D  3037               	movlw	55
  3739     011E  0023               	movlb	3	; select bank3
  3740     011F  008C               	movwf	12	;volatile
  3741     0120                     l1051:
  3742                           
  3743                           ;mcc_generated_files/system/src/pins.c: 58:     ANSELB = 0xD0;
  3744     0120  30D0               	movlw	208
  3745     0121  008D               	movwf	13	;volatile
  3746     0122                     l1053:
  3747                           
  3748                           ;mcc_generated_files/system/src/pins.c: 59:     ANSELC = 0xFF;
  3749     0122  30FF               	movlw	255
  3750     0123  008E               	movwf	14	;volatile
  3751                           
  3752                           ;mcc_generated_files/system/src/pins.c: 64:     WPUA = 0x0;
  3753     0124  0024               	movlb	4	; select bank4
  3754     0125  018C               	clrf	12	;volatile
  3755                           
  3756                           ;mcc_generated_files/system/src/pins.c: 65:     WPUB = 0x0;
  3757     0126  018D               	clrf	13	;volatile
  3758                           
  3759                           ;mcc_generated_files/system/src/pins.c: 66:     WPUC = 0x0;
  3760     0127  018E               	clrf	14	;volatile
  3761                           
  3762                           ;mcc_generated_files/system/src/pins.c: 72:     ODCONA = 0x0;
  3763     0128  0025               	movlb	5	; select bank5
  3764     0129  018C               	clrf	12	;volatile
  3765                           
  3766                           ;mcc_generated_files/system/src/pins.c: 73:     ODCONB = 0x0;
  3767     012A  018D               	clrf	13	;volatile
  3768                           
  3769                           ;mcc_generated_files/system/src/pins.c: 74:     ODCONC = 0x0;
  3770     012B  018E               	clrf	14	;volatile
  3771     012C                     l1055:
  3772                           
  3773                           ;mcc_generated_files/system/src/pins.c: 78:     SLRCONA = 0x37;
  3774     012C  3037               	movlw	55
  3775     012D  0026               	movlb	6	; select bank6
  3776     012E  008C               	movwf	12	;volatile
  3777     012F                     l1057:
  3778                           
  3779                           ;mcc_generated_files/system/src/pins.c: 79:     SLRCONB = 0xF0;
  3780     012F  30F0               	movlw	240
  3781     0130  008D               	movwf	13	;volatile
  3782     0131                     l1059:
  3783                           
  3784                           ;mcc_generated_files/system/src/pins.c: 80:     SLRCONC = 0xFF;
  3785     0131  30FF               	movlw	255
  3786     0132  008E               	movwf	14	;volatile
  3787     0133                     l1061:
  3788                           
  3789                           ;mcc_generated_files/system/src/pins.c: 84:     INLVLA = 0x3F;
  3790     0133  303F               	movlw	63
  3791     0134  0027               	movlb	7	; select bank7
  3792     0135  008C               	movwf	12	;volatile
  3793     0136                     l1063:
  3794                           
  3795                           ;mcc_generated_files/system/src/pins.c: 85:     INLVLB = 0xF0;
  3796     0136  30F0               	movlw	240
  3797     0137  008D               	movwf	13	;volatile
  3798     0138                     l1065:
  3799                           
  3800                           ;mcc_generated_files/system/src/pins.c: 86:     INLVLC = 0xFF;
  3801     0138  30FF               	movlw	255
  3802     0139  008E               	movwf	14	;volatile
  3803     013A                     l1067:
  3804                           
  3805                           ;mcc_generated_files/system/src/pins.c: 91:     RXPPS = 0xD;
  3806     013A  300D               	movlw	13
  3807     013B  003C               	movlb	28	; select bank28
  3808     013C  00A4               	movwf	36	;volatile
  3809     013D                     l1069:
  3810                           
  3811                           ;mcc_generated_files/system/src/pins.c: 92:     RB4PPS = 20;
  3812     013D  3014               	movlw	20
  3813     013E  003D               	movlb	29	; select bank29
  3814     013F  009C               	movwf	28	;volatile
  3815                           
  3816                           ;mcc_generated_files/system/src/pins.c: 101:     IOCAP = 0x0;
  3817     0140  0027               	movlb	7	; select bank7
  3818     0141  0191               	clrf	17	;volatile
  3819                           
  3820                           ;mcc_generated_files/system/src/pins.c: 102:     IOCAN = 0x0;
  3821     0142  0192               	clrf	18	;volatile
  3822                           
  3823                           ;mcc_generated_files/system/src/pins.c: 103:     IOCAF = 0x0;
  3824     0143  0193               	clrf	19	;volatile
  3825                           
  3826                           ;mcc_generated_files/system/src/pins.c: 104:     IOCBP = 0x0;
  3827     0144  0194               	clrf	20	;volatile
  3828                           
  3829                           ;mcc_generated_files/system/src/pins.c: 105:     IOCBN = 0x0;
  3830     0145  0195               	clrf	21	;volatile
  3831                           
  3832                           ;mcc_generated_files/system/src/pins.c: 106:     IOCBF = 0x0;
  3833     0146  0196               	clrf	22	;volatile
  3834                           
  3835                           ;mcc_generated_files/system/src/pins.c: 107:     IOCCP = 0x0;
  3836     0147  0197               	clrf	23	;volatile
  3837                           
  3838                           ;mcc_generated_files/system/src/pins.c: 108:     IOCCN = 0x0;
  3839     0148  0198               	clrf	24	;volatile
  3840                           
  3841                           ;mcc_generated_files/system/src/pins.c: 109:     IOCCF = 0x0;
  3842     0149  0199               	clrf	25	;volatile
  3843     014A                     l130:
  3844     014A  0008               	return
  3845     014B                     __end_of_PIN_MANAGER_Initialize:
  3846                           
  3847                           	psect	text10
  3848     01E7                     __ptext10:	
  3849 ;; *************** function _INTERRUPT_Initialize *****************
  3850 ;; Defined at:
  3851 ;;		line 40 in file "mcc_generated_files/system/src/interrupt.c"
  3852 ;; Parameters:    Size  Location     Type
  3853 ;;		None
  3854 ;; Auto vars:     Size  Location     Type
  3855 ;;		None
  3856 ;; Return value:  Size  Location     Type
  3857 ;;                  1    wreg      void 
  3858 ;; Registers used:
  3859 ;;		wreg, status,2, status,0, pclath, cstack
  3860 ;; Tracked objects:
  3861 ;;		On entry : 0/0
  3862 ;;		On exit  : 0/0
  3863 ;;		Unchanged: 0/0
  3864 ;; Data sizes:     COMMON   BANK0   BANK1   BANK2   BANK3   BANK4   BANK5   BANK6   BANK7   BANK8   BANK9  BANK10  BANK1
      +1  BANK12  BANK13  BANK14  BANK15  BANK16  BANK17  BANK18  BANK19  BANK20  BANK21  BANK22  BANK23  BANK24  BANK25
  3865 ;;      Params:         0       0       0       0       0       0       0       0       0       0       0       0       
      +0       0       0       0       0       0       0       0       0       0       0       0       0       0       0
  3866 ;;      Locals:         0       0       0       0       0       0       0       0       0       0       0       0       
      +0       0       0       0       0       0       0       0       0       0       0       0       0       0       0
  3867 ;;      Temps:          0       0       0       0       0       0       0       0       0       0       0       0       
      +0       0       0       0       0       0       0       0       0       0       0       0       0       0       0
  3868 ;;      Totals:         0       0       0       0       0       0       0       0       0       0       0       0       
      +0       0       0       0       0       0       0       0       0       0       0       0       0       0       0
  3869 ;;Total ram usage:        0 bytes
  3870 ;; Hardware stack levels used: 1
  3871 ;; Hardware stack levels required when called: 3
  3872 ;; This function calls:
  3873 ;;		_INT_SetInterruptHandler
  3874 ;; This function is called by:
  3875 ;;		_SYSTEM_Initialize
  3876 ;; This function uses a non-reentrant model
  3877 ;;
  3878                           
  3879     01E7                     _INTERRUPT_Initialize:	
  3880                           ;psect for function _INTERRUPT_Initialize
  3881                           
  3882     01E7                     l1271:	
  3883                           ;incstack = 0
  3884                           ; Regs used in _INTERRUPT_Initialize: [wreg+status,2+status,0+pclath+cstack]
  3885                           
  3886                           
  3887                           ;mcc_generated_files/system/src/interrupt.c: 44:     (PIR0bits.INTF = 0);
  3888     01E7  0020               	movlb	0	; select bank0
  3889     01E8  1010               	bcf	16,0	;volatile
  3890                           
  3891                           ;mcc_generated_files/system/src/interrupt.c: 45:     (INTCONbits.INTEDG = 1);
  3892     01E9  140B               	bsf	11,0	;volatile
  3893     01EA                     l1273:
  3894                           
  3895                           ;mcc_generated_files/system/src/interrupt.c: 47:     INT_SetInterruptHandler(INT_Default
      +                          InterruptHandler);
  3896     01EA  3000               	movlw	0
  3897     01EB  00F0               	movwf	INT_SetInterruptHandler@InterruptHandler
  3898     01EC  3000               	movlw	0
  3899     01ED  00F1               	movwf	INT_SetInterruptHandler@InterruptHandler+1
  3900     01EE  3182  2201  3181   	fcall	_INT_SetInterruptHandler
  3901     01F1                     l43:
  3902     01F1  0008               	return
  3903     01F2                     __end_of_INTERRUPT_Initialize:
  3904                           
  3905                           	psect	text11
  3906     0201                     __ptext11:	
  3907 ;; *************** function _INT_SetInterruptHandler *****************
  3908 ;; Defined at:
  3909 ;;		line 90 in file "mcc_generated_files/system/src/interrupt.c"
  3910 ;; Parameters:    Size  Location     Type
  3911 ;;  InterruptHan    2    0[COMMON] PTR FTN()void 
  3912 ;;		 -> INT_DefaultInterruptHandler(1), 
  3913 ;; Auto vars:     Size  Location     Type
  3914 ;;		None
  3915 ;; Return value:  Size  Location     Type
  3916 ;;                  1    wreg      void 
  3917 ;; Registers used:
  3918 ;;		wreg
  3919 ;; Tracked objects:
  3920 ;;		On entry : 0/0
  3921 ;;		On exit  : 0/0
  3922 ;;		Unchanged: 0/0
  3923 ;; Data sizes:     COMMON   BANK0   BANK1   BANK2   BANK3   BANK4   BANK5   BANK6   BANK7   BANK8   BANK9  BANK10  BANK1
      +1  BANK12  BANK13  BANK14  BANK15  BANK16  BANK17  BANK18  BANK19  BANK20  BANK21  BANK22  BANK23  BANK24  BANK25
  3924 ;;      Params:         2       0       0       0       0       0       0       0       0       0       0       0       
      +0       0       0       0       0       0       0       0       0       0       0       0       0       0       0
  3925 ;;      Locals:         0       0       0       0       0       0       0       0       0       0       0       0       
      +0       0       0       0       0       0       0       0       0       0       0       0       0       0       0
  3926 ;;      Temps:          0       0       0       0       0       0       0       0       0       0       0       0       
      +0       0       0       0       0       0       0       0       0       0       0       0       0       0       0
  3927 ;;      Totals:         2       0       0       0       0       0       0       0       0       0       0       0       
      +0       0       0       0       0       0       0       0       0       0       0       0       0       0       0
  3928 ;;Total ram usage:        2 bytes
  3929 ;; Hardware stack levels used: 1
  3930 ;; Hardware stack levels required when called: 2
  3931 ;; This function calls:
  3932 ;;		Nothing
  3933 ;; This function is called by:
  3934 ;;		_INTERRUPT_Initialize
  3935 ;; This function uses a non-reentrant model
  3936 ;;
  3937                           
  3938     0201                     _INT_SetInterruptHandler:	
  3939                           ;psect for function _INT_SetInterruptHandler
  3940                           
  3941     0201                     l1233:	
  3942                           ;incstack = 0
  3943                           ; Regs used in _INT_SetInterruptHandler: [wreg]
  3944                           
  3945                           
  3946                           ;mcc_generated_files/system/src/interrupt.c: 91:     INT_InterruptHandler = InterruptHan
      +                          dler;
  3947     0201  0871               	movf	INT_SetInterruptHandler@InterruptHandler+1,w
  3948     0202  0020               	movlb	0	; select bank0
  3949     0203  00CB               	movwf	_INT_InterruptHandler+1
  3950     0204  0870               	movf	INT_SetInterruptHandler@InterruptHandler,w
  3951     0205  00CA               	movwf	_INT_InterruptHandler
  3952     0206                     l60:
  3953     0206  0008               	return
  3954     0207                     __end_of_INT_SetInterruptHandler:
  3955                           
  3956                           	psect	text12
  3957     016A                     __ptext12:	
  3958 ;; *************** function _EUSART_Initialize *****************
  3959 ;; Defined at:
  3960 ;;		line 94 in file "mcc_generated_files/uart/src/eusart.c"
  3961 ;; Parameters:    Size  Location     Type
  3962 ;;		None
  3963 ;; Auto vars:     Size  Location     Type
  3964 ;;		None
  3965 ;; Return value:  Size  Location     Type
  3966 ;;                  1    wreg      void 
  3967 ;; Registers used:
  3968 ;;		wreg, status,2, status,0, pclath, cstack
  3969 ;; Tracked objects:
  3970 ;;		On entry : 0/0
  3971 ;;		On exit  : 0/0
  3972 ;;		Unchanged: 0/0
  3973 ;; Data sizes:     COMMON   BANK0   BANK1   BANK2   BANK3   BANK4   BANK5   BANK6   BANK7   BANK8   BANK9  BANK10  BANK1
      +1  BANK12  BANK13  BANK14  BANK15  BANK16  BANK17  BANK18  BANK19  BANK20  BANK21  BANK22  BANK23  BANK24  BANK25
  3974 ;;      Params:         0       0       0       0       0       0       0       0       0       0       0       0       
      +0       0       0       0       0       0       0       0       0       0       0       0       0       0       0
  3975 ;;      Locals:         0       0       0       0       0       0       0       0       0       0       0       0       
      +0       0       0       0       0       0       0       0       0       0       0       0       0       0       0
  3976 ;;      Temps:          0       0       0       0       0       0       0       0       0       0       0       0       
      +0       0       0       0       0       0       0       0       0       0       0       0       0       0       0
  3977 ;;      Totals:         0       0       0       0       0       0       0       0       0       0       0       0       
      +0       0       0       0       0       0       0       0       0       0       0       0       0       0       0
  3978 ;;Total ram usage:        0 bytes
  3979 ;; Hardware stack levels used: 1
  3980 ;; Hardware stack levels required when called: 3
  3981 ;; This function calls:
  3982 ;;		_EUSART_FramingErrorCallbackRegister
  3983 ;;		_EUSART_OverrunErrorCallbackRegister
  3984 ;; This function is called by:
  3985 ;;		_SYSTEM_Initialize
  3986 ;; This function uses a non-reentrant model
  3987 ;;
  3988                           
  3989     016A                     _EUSART_Initialize:	
  3990                           ;psect for function _EUSART_Initialize
  3991                           
  3992     016A                     l1261:	
  3993                           ;incstack = 0
  3994                           ; Regs used in _EUSART_Initialize: [wreg+status,2+status,0+pclath+cstack]
  3995                           
  3996                           
  3997                           ;mcc_generated_files/uart/src/eusart.c: 99:     BAUD1CON = 0x48;
  3998     016A  3048               	movlw	72
  3999     016B  0023               	movlb	3	; select bank3
  4000     016C  009F               	movwf	31	;volatile
  4001                           
  4002                           ;mcc_generated_files/uart/src/eusart.c: 101:     RC1STA = 0x90;
  4003     016D  3090               	movlw	144
  4004     016E  009D               	movwf	29	;volatile
  4005                           
  4006                           ;mcc_generated_files/uart/src/eusart.c: 103:     TX1STA = 0x26;
  4007     016F  3026               	movlw	38
  4008     0170  009E               	movwf	30	;volatile
  4009                           
  4010                           ;mcc_generated_files/uart/src/eusart.c: 105:     SP1BRGL = 0x19;
  4011     0171  3019               	movlw	25
  4012     0172  009B               	movwf	27	;volatile
  4013     0173                     l1263:
  4014                           
  4015                           ;mcc_generated_files/uart/src/eusart.c: 107:     SP1BRGH = 0x0;
  4016     0173  019C               	clrf	28	;volatile
  4017     0174                     l1265:
  4018                           
  4019                           ;mcc_generated_files/uart/src/eusart.c: 109:     EUSART_FramingErrorCallbackRegister(EUS
      +                          ART_DefaultFramingErrorCallback);
  4020     0174  3000               	movlw	0
  4021     0175  00F0               	movwf	EUSART_FramingErrorCallbackRegister@callbackHandler
  4022     0176  3000               	movlw	0
  4023     0177  00F1               	movwf	EUSART_FramingErrorCallbackRegister@callbackHandler+1
  4024     0178  3181  21DB  3181   	fcall	_EUSART_FramingErrorCallbackRegister
  4025     017B                     l1267:
  4026                           
  4027                           ;mcc_generated_files/uart/src/eusart.c: 110:     EUSART_OverrunErrorCallbackRegister(EUS
      +                          ART_DefaultOverrunErrorCallback);
  4028     017B  3000               	movlw	0
  4029     017C  00F0               	movwf	EUSART_OverrunErrorCallbackRegister@callbackHandler
  4030     017D  3000               	movlw	0
  4031     017E  00F1               	movwf	EUSART_OverrunErrorCallbackRegister@callbackHandler+1
  4032     017F  3181  21CF  3181   	fcall	_EUSART_OverrunErrorCallbackRegister
  4033     0182                     l1269:
  4034                           
  4035                           ;mcc_generated_files/uart/src/eusart.c: 111:     eusartRxLastError.status = 0;
  4036     0182  0020               	movlb	0	; select bank0
  4037     0183  01C8               	clrf	_eusartRxLastError	;volatile
  4038     0184  01C9               	clrf	_eusartRxLastError+1	;volatile
  4039     0185                     l210:
  4040     0185  0008               	return
  4041     0186                     __end_of_EUSART_Initialize:
  4042                           
  4043                           	psect	text13
  4044     01CF                     __ptext13:	
  4045 ;; *************** function _EUSART_OverrunErrorCallbackRegister *****************
  4046 ;; Defined at:
  4047 ;;		line 272 in file "mcc_generated_files/uart/src/eusart.c"
  4048 ;; Parameters:    Size  Location     Type
  4049 ;;  callbackHand    2    0[COMMON] PTR FTN()void 
  4050 ;;		 -> EUSART_DefaultOverrunErrorCallback(1), 
  4051 ;; Auto vars:     Size  Location     Type
  4052 ;;		None
  4053 ;; Return value:  Size  Location     Type
  4054 ;;                  1    wreg      void 
  4055 ;; Registers used:
  4056 ;;		wreg, status,2, status,0
  4057 ;; Tracked objects:
  4058 ;;		On entry : 0/0
  4059 ;;		On exit  : 0/0
  4060 ;;		Unchanged: 0/0
  4061 ;; Data sizes:     COMMON   BANK0   BANK1   BANK2   BANK3   BANK4   BANK5   BANK6   BANK7   BANK8   BANK9  BANK10  BANK1
      +1  BANK12  BANK13  BANK14  BANK15  BANK16  BANK17  BANK18  BANK19  BANK20  BANK21  BANK22  BANK23  BANK24  BANK25
  4062 ;;      Params:         2       0       0       0       0       0       0       0       0       0       0       0       
      +0       0       0       0       0       0       0       0       0       0       0       0       0       0       0
  4063 ;;      Locals:         0       0       0       0       0       0       0       0       0       0       0       0       
      +0       0       0       0       0       0       0       0       0       0       0       0       0       0       0
  4064 ;;      Temps:          0       0       0       0       0       0       0       0       0       0       0       0       
      +0       0       0       0       0       0       0       0       0       0       0       0       0       0       0
  4065 ;;      Totals:         2       0       0       0       0       0       0       0       0       0       0       0       
      +0       0       0       0       0       0       0       0       0       0       0       0       0       0       0
  4066 ;;Total ram usage:        2 bytes
  4067 ;; Hardware stack levels used: 1
  4068 ;; Hardware stack levels required when called: 2
  4069 ;; This function calls:
  4070 ;;		Nothing
  4071 ;; This function is called by:
  4072 ;;		_EUSART_Initialize
  4073 ;; This function uses a non-reentrant model
  4074 ;;
  4075                           
  4076     01CF                     _EUSART_OverrunErrorCallbackRegister:	
  4077                           ;psect for function _EUSART_OverrunErrorCallbackRegister
  4078                           
  4079     01CF                     l1239:	
  4080                           ;incstack = 0
  4081                           ; Regs used in _EUSART_OverrunErrorCallbackRegister: [wreg+status,2+status,0]
  4082                           
  4083                           
  4084                           ;mcc_generated_files/uart/src/eusart.c: 272: void EUSART_OverrunErrorCallbackRegister(vo
      +                          id (* callbackHandler)(void));mcc_generated_files/uart/src/eusart.c: 273: {;mcc_generate
      +                          d_files/uart/src/eusart.c: 274:     if(((void*)0) != callbackHandler)
  4085     01CF  0870               	movf	EUSART_OverrunErrorCallbackRegister@callbackHandler,w
  4086     01D0  0471               	iorwf	EUSART_OverrunErrorCallbackRegister@callbackHandler+1,w
  4087     01D1  1903               	btfsc	3,2
  4088     01D2  29D4               	goto	u291
  4089     01D3  29D5               	goto	u290
  4090     01D4                     u291:
  4091     01D4  29DA               	goto	l301
  4092     01D5                     u290:
  4093     01D5                     l1241:
  4094                           
  4095                           ;mcc_generated_files/uart/src/eusart.c: 275:     {;mcc_generated_files/uart/src/eusart.c
      +                          : 276:         EUSART_OverrunErrorHandler = callbackHandler;
  4096     01D5  0871               	movf	EUSART_OverrunErrorCallbackRegister@callbackHandler+1,w
  4097     01D6  0020               	movlb	0	; select bank0
  4098     01D7  00C5               	movwf	_EUSART_OverrunErrorHandler+1
  4099     01D8  0870               	movf	EUSART_OverrunErrorCallbackRegister@callbackHandler,w
  4100     01D9  00C4               	movwf	_EUSART_OverrunErrorHandler
  4101     01DA                     l301:
  4102     01DA  0008               	return
  4103     01DB                     __end_of_EUSART_OverrunErrorCallbackRegister:
  4104                           
  4105                           	psect	text14
  4106     01DB                     __ptext14:	
  4107 ;; *************** function _EUSART_FramingErrorCallbackRegister *****************
  4108 ;; Defined at:
  4109 ;;		line 264 in file "mcc_generated_files/uart/src/eusart.c"
  4110 ;; Parameters:    Size  Location     Type
  4111 ;;  callbackHand    2    0[COMMON] PTR FTN()void 
  4112 ;;		 -> EUSART_DefaultFramingErrorCallback(1), 
  4113 ;; Auto vars:     Size  Location     Type
  4114 ;;		None
  4115 ;; Return value:  Size  Location     Type
  4116 ;;                  1    wreg      void 
  4117 ;; Registers used:
  4118 ;;		wreg, status,2, status,0
  4119 ;; Tracked objects:
  4120 ;;		On entry : 0/0
  4121 ;;		On exit  : 0/0
  4122 ;;		Unchanged: 0/0
  4123 ;; Data sizes:     COMMON   BANK0   BANK1   BANK2   BANK3   BANK4   BANK5   BANK6   BANK7   BANK8   BANK9  BANK10  BANK1
      +1  BANK12  BANK13  BANK14  BANK15  BANK16  BANK17  BANK18  BANK19  BANK20  BANK21  BANK22  BANK23  BANK24  BANK25
  4124 ;;      Params:         2       0       0       0       0       0       0       0       0       0       0       0       
      +0       0       0       0       0       0       0       0       0       0       0       0       0       0       0
  4125 ;;      Locals:         0       0       0       0       0       0       0       0       0       0       0       0       
      +0       0       0       0       0       0       0       0       0       0       0       0       0       0       0
  4126 ;;      Temps:          0       0       0       0       0       0       0       0       0       0       0       0       
      +0       0       0       0       0       0       0       0       0       0       0       0       0       0       0
  4127 ;;      Totals:         2       0       0       0       0       0       0       0       0       0       0       0       
      +0       0       0       0       0       0       0       0       0       0       0       0       0       0       0
  4128 ;;Total ram usage:        2 bytes
  4129 ;; Hardware stack levels used: 1
  4130 ;; Hardware stack levels required when called: 2
  4131 ;; This function calls:
  4132 ;;		Nothing
  4133 ;; This function is called by:
  4134 ;;		_EUSART_Initialize
  4135 ;; This function uses a non-reentrant model
  4136 ;;
  4137                           
  4138     01DB                     _EUSART_FramingErrorCallbackRegister:	
  4139                           ;psect for function _EUSART_FramingErrorCallbackRegister
  4140                           
  4141     01DB                     l1235:	
  4142                           ;incstack = 0
  4143                           ; Regs used in _EUSART_FramingErrorCallbackRegister: [wreg+status,2+status,0]
  4144                           
  4145                           
  4146                           ;mcc_generated_files/uart/src/eusart.c: 264: void EUSART_FramingErrorCallbackRegister(vo
      +                          id (* callbackHandler)(void));mcc_generated_files/uart/src/eusart.c: 265: {;mcc_generate
      +                          d_files/uart/src/eusart.c: 266:     if(((void*)0) != callbackHandler)
  4147     01DB  0870               	movf	EUSART_FramingErrorCallbackRegister@callbackHandler,w
  4148     01DC  0471               	iorwf	EUSART_FramingErrorCallbackRegister@callbackHandler+1,w
  4149     01DD  1903               	btfsc	3,2
  4150     01DE  29E0               	goto	u281
  4151     01DF  29E1               	goto	u280
  4152     01E0                     u281:
  4153     01E0  29E6               	goto	l297
  4154     01E1                     u280:
  4155     01E1                     l1237:
  4156                           
  4157                           ;mcc_generated_files/uart/src/eusart.c: 267:     {;mcc_generated_files/uart/src/eusart.c
      +                          : 268:         EUSART_FramingErrorHandler = callbackHandler;
  4158     01E1  0871               	movf	EUSART_FramingErrorCallbackRegister@callbackHandler+1,w
  4159     01E2  0020               	movlb	0	; select bank0
  4160     01E3  00C7               	movwf	_EUSART_FramingErrorHandler+1
  4161     01E4  0870               	movf	EUSART_FramingErrorCallbackRegister@callbackHandler,w
  4162     01E5  00C6               	movwf	_EUSART_FramingErrorHandler
  4163     01E6                     l297:
  4164     01E6  0008               	return
  4165     01E7                     __end_of_EUSART_FramingErrorCallbackRegister:
  4166                           
  4167                           	psect	text15
  4168     01F2                     __ptext15:	
  4169 ;; *************** function _CLOCK_Initialize *****************
  4170 ;; Defined at:
  4171 ;;		line 37 in file "mcc_generated_files/system/src/clock.c"
  4172 ;; Parameters:    Size  Location     Type
  4173 ;;		None
  4174 ;; Auto vars:     Size  Location     Type
  4175 ;;		None
  4176 ;; Return value:  Size  Location     Type
  4177 ;;                  1    wreg      void 
  4178 ;; Registers used:
  4179 ;;		wreg, status,2
  4180 ;; Tracked objects:
  4181 ;;		On entry : 0/0
  4182 ;;		On exit  : 0/0
  4183 ;;		Unchanged: 0/0
  4184 ;; Data sizes:     COMMON   BANK0   BANK1   BANK2   BANK3   BANK4   BANK5   BANK6   BANK7   BANK8   BANK9  BANK10  BANK1
      +1  BANK12  BANK13  BANK14  BANK15  BANK16  BANK17  BANK18  BANK19  BANK20  BANK21  BANK22  BANK23  BANK24  BANK25
  4185 ;;      Params:         0       0       0       0       0       0       0       0       0       0       0       0       
      +0       0       0       0       0       0       0       0       0       0       0       0       0       0       0
  4186 ;;      Locals:         0       0       0       0       0       0       0       0       0       0       0       0       
      +0       0       0       0       0       0       0       0       0       0       0       0       0       0       0
  4187 ;;      Temps:          0       0       0       0       0       0       0       0       0       0       0       0       
      +0       0       0       0       0       0       0       0       0       0       0       0       0       0       0
  4188 ;;      Totals:         0       0       0       0       0       0       0       0       0       0       0       0       
      +0       0       0       0       0       0       0       0       0       0       0       0       0       0       0
  4189 ;;Total ram usage:        0 bytes
  4190 ;; Hardware stack levels used: 1
  4191 ;; Hardware stack levels required when called: 2
  4192 ;; This function calls:
  4193 ;;		Nothing
  4194 ;; This function is called by:
  4195 ;;		_SYSTEM_Initialize
  4196 ;; This function uses a non-reentrant model
  4197 ;;
  4198                           
  4199     01F2                     _CLOCK_Initialize:	
  4200                           ;psect for function _CLOCK_Initialize
  4201                           
  4202     01F2                     l1033:	
  4203                           ;incstack = 0
  4204                           ; Regs used in _CLOCK_Initialize: [wreg+status,2]
  4205                           
  4206                           
  4207                           ;mcc_generated_files/system/src/clock.c: 41:     OSCCON1 = 0x62;
  4208     01F2  3062               	movlw	98
  4209     01F3  0032               	movlb	18	; select bank18
  4210     01F4  0099               	movwf	25	;volatile
  4211     01F5                     l1035:
  4212                           
  4213                           ;mcc_generated_files/system/src/clock.c: 43:     OSCCON3 = 0x0;
  4214     01F5  019B               	clrf	27	;volatile
  4215     01F6                     l1037:
  4216                           
  4217                           ;mcc_generated_files/system/src/clock.c: 45:     OSCEN = 0x0;
  4218     01F6  019D               	clrf	29	;volatile
  4219                           
  4220                           ;mcc_generated_files/system/src/clock.c: 47:     OSCFRQ = 0x3;
  4221     01F7  3003               	movlw	3
  4222     01F8  009F               	movwf	31	;volatile
  4223     01F9                     l1039:
  4224                           
  4225                           ;mcc_generated_files/system/src/clock.c: 49:     OSCTUNE = 0x0;
  4226     01F9  019E               	clrf	30	;volatile
  4227     01FA                     l24:
  4228     01FA  0008               	return
  4229     01FB                     __end_of_CLOCK_Initialize:
  4230                           
  4231                           	psect	intentry
  4232     0004                     __pintentry:	
  4233 ;; *************** function _INTERRUPT_InterruptManager *****************
  4234 ;; Defined at:
  4235 ;;		line 59 in file "mcc_generated_files/system/src/interrupt.c"
  4236 ;; Parameters:    Size  Location     Type
  4237 ;;		None
  4238 ;; Auto vars:     Size  Location     Type
  4239 ;;		None
  4240 ;; Return value:  Size  Location     Type
  4241 ;;                  1    wreg      void 
  4242 ;; Registers used:
  4243 ;;		status,2, status,0, pclath, cstack
  4244 ;; Tracked objects:
  4245 ;;		On entry : 0/0
  4246 ;;		On exit  : 0/0
  4247 ;;		Unchanged: 0/0
  4248 ;; Data sizes:     COMMON   BANK0   BANK1   BANK2   BANK3   BANK4   BANK5   BANK6   BANK7   BANK8   BANK9  BANK10  BANK1
      +1  BANK12  BANK13  BANK14  BANK15  BANK16  BANK17  BANK18  BANK19  BANK20  BANK21  BANK22  BANK23  BANK24  BANK25
  4249 ;;      Params:         0       0       0       0       0       0       0       0       0       0       0       0       
      +0       0       0       0       0       0       0       0       0       0       0       0       0       0       0
  4250 ;;      Locals:         0       0       0       0       0       0       0       0       0       0       0       0       
      +0       0       0       0       0       0       0       0       0       0       0       0       0       0       0
  4251 ;;      Temps:          0       0       0       0       0       0       0       0       0       0       0       0       
      +0       0       0       0       0       0       0       0       0       0       0       0       0       0       0
  4252 ;;      Totals:         0       0       0       0       0       0       0       0       0       0       0       0       
      +0       0       0       0       0       0       0       0       0       0       0       0       0       0       0
  4253 ;;Total ram usage:        0 bytes
  4254 ;; Hardware stack levels used: 1
  4255 ;; Hardware stack levels required when called: 1
  4256 ;; This function calls:
  4257 ;;		_PIN_MANAGER_IOC
  4258 ;; This function is called by:
  4259 ;;		Interrupt level 1
  4260 ;; This function uses a non-reentrant model
  4261 ;;
  4262                           
  4263     0004                     _INTERRUPT_InterruptManager:
  4264                           
  4265                           ;incstack = 0
  4266     0004  147E               	bsf	int$flags,0	;set compiler interrupt flag (level 1)
  4267                           
  4268                           ; Regs used in _INTERRUPT_InterruptManager: [status,2+status,0+pclath+cstack]
  4269     0005  3180               	pagesel	$
  4270     0006                     i1l1129:
  4271                           
  4272                           ;mcc_generated_files/system/src/interrupt.c: 62:     if(PIE0bits.IOCIE == 1 && PIR0bits.
      +                          IOCIF == 1)
  4273     0006  0021               	movlb	1	; select bank1
  4274     0007  1E10               	btfss	16,4	;volatile
  4275     0008  280A               	goto	u16_21
  4276     0009  280B               	goto	u16_20
  4277     000A                     u16_21:
  4278     000A  2813               	goto	i1l50
  4279     000B                     u16_20:
  4280     000B                     i1l1131:
  4281     000B  0020               	movlb	0	; select bank0
  4282     000C  1E10               	btfss	16,4	;volatile
  4283     000D  280F               	goto	u17_21
  4284     000E  2810               	goto	u17_20
  4285     000F                     u17_21:
  4286     000F  2813               	goto	i1l50
  4287     0010                     u17_20:
  4288     0010                     i1l1133:
  4289                           
  4290                           ;mcc_generated_files/system/src/interrupt.c: 63:     {;mcc_generated_files/system/src/in
      +                          terrupt.c: 64:         PIN_MANAGER_IOC();
  4291     0010  3182  220B  3180   	fcall	_PIN_MANAGER_IOC
  4292     0013                     i1l50:	
  4293                           ;mcc_generated_files/system/src/interrupt.c: 65:     }
  4294                           
  4295     0013  107E               	bcf	int$flags,0	;clear compiler interrupt flag (level 1)
  4296     0014  0009               	retfie
  4297     0015                     __end_of_INTERRUPT_InterruptManager:
  4298                           
  4299                           	psect	text17
  4300     020B                     __ptext17:	
  4301 ;; *************** function _PIN_MANAGER_IOC *****************
  4302 ;; Defined at:
  4303 ;;		line 114 in file "mcc_generated_files/system/src/pins.c"
  4304 ;; Parameters:    Size  Location     Type
  4305 ;;		None
  4306 ;; Auto vars:     Size  Location     Type
  4307 ;;		None
  4308 ;; Return value:  Size  Location     Type
  4309 ;;                  1    wreg      void 
  4310 ;; Registers used:
  4311 ;;		None
  4312 ;; Tracked objects:
  4313 ;;		On entry : 0/0
  4314 ;;		On exit  : 0/0
  4315 ;;		Unchanged: 0/0
  4316 ;; Data sizes:     COMMON   BANK0   BANK1   BANK2   BANK3   BANK4   BANK5   BANK6   BANK7   BANK8   BANK9  BANK10  BANK1
      +1  BANK12  BANK13  BANK14  BANK15  BANK16  BANK17  BANK18  BANK19  BANK20  BANK21  BANK22  BANK23  BANK24  BANK25
  4317 ;;      Params:         0       0       0       0       0       0       0       0       0       0       0       0       
      +0       0       0       0       0       0       0       0       0       0       0       0       0       0       0
  4318 ;;      Locals:         0       0       0       0       0       0       0       0       0       0       0       0       
      +0       0       0       0       0       0       0       0       0       0       0       0       0       0       0
  4319 ;;      Temps:          0       0       0       0       0       0       0       0       0       0       0       0       
      +0       0       0       0       0       0       0       0       0       0       0       0       0       0       0
  4320 ;;      Totals:         0       0       0       0       0       0       0       0       0       0       0       0       
      +0       0       0       0       0       0       0       0       0       0       0       0       0       0       0
  4321 ;;Total ram usage:        0 bytes
  4322 ;; Hardware stack levels used: 1
  4323 ;; This function calls:
  4324 ;;		Nothing
  4325 ;; This function is called by:
  4326 ;;		_INTERRUPT_InterruptManager
  4327 ;; This function uses a non-reentrant model
  4328 ;;
  4329                           
  4330     020B                     _PIN_MANAGER_IOC:	
  4331                           ;psect for function _PIN_MANAGER_IOC
  4332                           
  4333     020B                     i1l133:	
  4334                           ;incstack = 0
  4335                           ; Regs used in _PIN_MANAGER_IOC: []
  4336                           
  4337     020B  0008               	return
  4338     020C                     __end_of_PIN_MANAGER_IOC:
  4339     007E                     btemp	set	126	;btemp
  4340     007E                     int$flags	set	126
  4341     007E                     wtemp0	set	126
  4342                           
  4343                           	psect	config
  4344                           
  4345                           ;Config register CONFIG1 @ 0x8007
  4346                           ;	FEXTOSC External Oscillator mode Selection bits
  4347                           ;	FEXTOSC = ECH, EC (external clock) above 8 MHz
  4348                           ;	Power-up default value for COSC bits
  4349                           ;	RSTOSC = EXT1X, EXTOSC operating per FEXTOSC bits
  4350                           ;	Clock Out Enable bit
  4351                           ;	CLKOUTEN = OFF, CLKOUT function is disabled; I/O or oscillator function on OSC2
  4352                           ;	Clock Switch Enable bit
  4353                           ;	CSWEN = ON, Writing to NOSC and NDIV is allowed
  4354                           ;	Fail-Safe Clock Monitor Enable
  4355                           ;	FCMEN = ON, Fail-Safe Clock Monitor is enabled
  4356     8007                     	org	32775
  4357     8007  3FFF               	dw	16383
  4358                           
  4359                           ;Config register CONFIG2 @ 0x8008
  4360                           ;	Master Clear Enable bit
  4361                           ;	MCLRE = ON, MCLR/VPP pin function is MCLR; Weak pull-up enabled
  4362                           ;	Power-up Timer Enable bit
  4363                           ;	PWRTE = OFF, PWRT disabled
  4364                           ;	Watchdog Timer Enable bits
  4365                           ;	WDTE = OFF, WDT disabled; SWDTEN is ignored
  4366                           ;	Low-power BOR enable bit
  4367                           ;	LPBOREN = OFF, ULPBOR disabled
  4368                           ;	Brown-out Reset Enable bits
  4369                           ;	BOREN = ON, Brown-out Reset enabled, SBOREN bit ignored
  4370                           ;	Brown-out Reset Voltage selection bit
  4371                           ;	BORV = LOW, Brown-out voltage (Vbor) set to 2.45V
  4372                           ;	PPSLOCK bit One-Way Set Enable bit
  4373                           ;	PPS1WAY = ON, The PPSLOCK bit can be cleared and set only once; PPS registers remain l
      +                          ocked after one clear/set cycle
  4374                           ;	Stack Overflow/Underflow Reset Enable bit
  4375                           ;	STVREN = ON, Stack Overflow or Underflow will cause a Reset
  4376                           ;	Debugger enable bit
  4377                           ;	DEBUG = OFF, Background debugger disabled
  4378     8008                     	org	32776
  4379     8008  3FF3               	dw	16371
  4380                           
  4381                           ;Config register CONFIG3 @ 0x8009
  4382                           ;	User NVM self-write protection bits
  4383                           ;	WRT = OFF, Write protection off
  4384                           ;	Low Voltage Programming Enable bit
  4385                           ;	LVP = ON, Low Voltage programming enabled. MCLR/VPP pin function is MCLR. MCLRE config
      +                          uration bit is ignored.
  4386     8009                     	org	32777
  4387     8009  3FFF               	dw	16383
  4388                           
  4389                           ;Config register CONFIG4 @ 0x800A
  4390                           ;	User NVM Program Memory Code Protection bit
  4391                           ;	CP = OFF, User NVM code protection disabled
  4392                           ;	Data NVM Memory Code Protection bit
  4393                           ;	CPD = OFF, Data NVM code protection disabled
  4394     800A                     	org	32778
  4395     800A  3FFF               	dw	16383

Data Sizes:
    Strings     24
    Constant    48
    Data        0
    BSS         45
    Persistent  32
    Stack       0

Auto Spaces:
    Space          Size  Autos    Used
    COMMON           14     14      14
    BANK0            80     16      61
    BANK1            80      0       0
    BANK2            80      0       0
    BANK3            80      0       0
    BANK4            80      0       0
    BANK5            80      0       0
    BANK6            80      0       0
    BANK7            80      0       0
    BANK8            80      0       0
    BANK9            80      0       0
    BANK10           80      0       0
    BANK11           80      0       0
    BANK12           80      0       0
    BANK13           80      0       0
    BANK14           80      0       0
    BANK15           80      0       0
    BANK16           80      0       0
    BANK17           80      0       0
    BANK18           80      0       0
    BANK19           80      0       0
    BANK20           80      0       0
    BANK21           80      0       0
    BANK22           80      0       0
    BANK23           80      0       0
    BANK24           80      0       0
    BANK25           32      0       0

Pointer List with Targets:

    EUSART_FramingErrorCallbackRegister@callbackHandler	PTR FTN()void  size(2) Largest target is 1
		 -> EUSART_DefaultFramingErrorCallback(), 

    EUSART_FramingErrorHandler	PTR FTN()void  size(2) Largest target is 1
		 -> EUSART_DefaultFramingErrorCallback(), NULL(), 

    EUSART_OverrunErrorCallbackRegister@callbackHandler	PTR FTN()void  size(2) Largest target is 1
		 -> EUSART_DefaultOverrunErrorCallback(), 

    EUSART_OverrunErrorHandler	PTR FTN()void  size(2) Largest target is 1
		 -> EUSART_DefaultOverrunErrorCallback(), NULL(), 

    fputc@fp	PTR struct _IO_FILE size(2) Largest target is 0
		 -> NULL(NULL[0]), 

    fputc@fp$.$buffer	PTR unsigned char  size(2) Largest target is 0

    fputc@fp$.$source	PTR const unsigned char  size(2) Largest target is 0

    INT_InterruptHandler	PTR FTN()void  size(2) Largest target is 1
		 -> INT_DefaultInterruptHandler(), NULL(), 

    INT_SetInterruptHandler@InterruptHandler	PTR FTN()void  size(2) Largest target is 1
		 -> INT_DefaultInterruptHandler(), 

    printf@ap	PTR void [1] size(1) Largest target is 2
		 -> ?_printf(BANK0[2]), 

    printf@fmt	PTR const unsigned char  size(2) Largest target is 24
		 -> STR_1(CODE[24]), 

    S1037$buffer	PTR unsigned char  size(2) Largest target is 0

    S1037$source	PTR const unsigned char  size(2) Largest target is 0

    S213$20$0	PTR FTN()void  size(2) Largest target is 1
		 -> EUSART_DefaultFramingErrorCallback(), 

    S213$21$0	PTR FTN()void  size(2) Largest target is 1
		 -> EUSART_DefaultOverrunErrorCallback(), 

    S213$AutoBaudEventEnableGet	PTR FTN()_Bool  size(2) Largest target is 1
		 -> NULL(), 

    S213$AutoBaudQuery	PTR FTN()_Bool  size(2) Largest target is 1
		 -> EUSART_AutoBaudQuery(), 

    S213$AutoBaudSet	PTR FTN(_Bool ,)void  size(2) Largest target is 1
		 -> EUSART_AutoBaudSet(), 

    S213$BaudRateGet	PTR FTN()unsigned long  size(2) Largest target is 1
		 -> NULL(), 

    S213$BaudRateSet	PTR FTN(unsigned long ,)void  size(2) Largest target is 1
		 -> NULL(), 

    S213$BRGCountGet	PTR FTN()unsigned long  size(2) Largest target is 1
		 -> NULL(), 

    S213$BRGCountSet	PTR FTN(unsigned long ,)void  size(2) Largest target is 1
		 -> NULL(), 

    S213$Deinitialize	PTR FTN()void  size(2) Largest target is 1
		 -> EUSART_Deinitialize(), 

    S213$ErrorGet	PTR FTN()unsigned int  size(2) Largest target is 2
		 -> EUSART_ErrorGet(), 

    S213$EventCallbackRegister	PTR FTN(PTR FTN()void ,)void  size(2) Largest target is 1
		 -> NULL(), 

    S213$FramingErrorCallbackRegister	PTR FTN(PTR FTN()void ,)void  size(2) Largest target is 1
		 -> EUSART_FramingErrorCallbackRegister(), 

    S213$Initialize	PTR FTN()void  size(2) Largest target is 1
		 -> EUSART_Initialize(), 

    S213$IsRxReady	PTR FTN()_Bool  size(2) Largest target is 1
		 -> EUSART_IsRxReady(), 

    S213$IsTxDone	PTR FTN()_Bool  size(2) Largest target is 1
		 -> EUSART_IsTxDone(), 

    S213$IsTxReady	PTR FTN()_Bool  size(2) Largest target is 1
		 -> EUSART_IsTxReady(), 

    S213$OverrunErrorCallbackRegister	PTR FTN(PTR FTN()void ,)void  size(2) Largest target is 1
		 -> EUSART_OverrunErrorCallbackRegister(), 

    S213$ParityErrorCallbackRegister	PTR FTN(PTR FTN()void ,)void  size(2) Largest target is 1
		 -> NULL(), 

    S213$Read	PTR FTN()unsigned char  size(2) Largest target is 1
		 -> EUSART_Read(), 

    S213$RxCompleteCallbackRegister	PTR FTN(PTR FTN()void ,)void  size(2) Largest target is 1
		 -> NULL(), 

    S213$TransmitDisable	PTR FTN()void  size(2) Largest target is 1
		 -> EUSART_TransmitDisable(), 

    S213$TransmitEnable	PTR FTN()void  size(2) Largest target is 1
		 -> EUSART_TransmitEnable(), 

    S213$TxCollisionCallbackRegister	PTR FTN(PTR FTN()void ,)void  size(2) Largest target is 1
		 -> NULL(), 

    S213$TxCompleteCallbackRegister	PTR FTN(PTR FTN()void ,)void  size(2) Largest target is 1
		 -> NULL(), 

    S213$Write	PTR FTN(unsigned char ,)void  size(2) Largest target is 1
		 -> EUSART_Write(), 

    UART1$AutoBaudEventEnableGet	PTR FTN()_Bool  size(2) Largest target is 1
		 -> NULL(), 

    UART1$AutoBaudQuery	PTR FTN()_Bool  size(2) Largest target is 1
		 -> EUSART_AutoBaudQuery(), 

    UART1$AutoBaudSet	PTR FTN(_Bool ,)void  size(2) Largest target is 1
		 -> EUSART_AutoBaudSet(), 

    UART1$BaudRateGet	PTR FTN()unsigned long  size(2) Largest target is 1
		 -> NULL(), 

    UART1$BaudRateSet	PTR FTN(unsigned long ,)void  size(2) Largest target is 1
		 -> NULL(), 

    UART1$BRGCountGet	PTR FTN()unsigned long  size(2) Largest target is 1
		 -> NULL(), 

    UART1$BRGCountSet	PTR FTN(unsigned long ,)void  size(2) Largest target is 1
		 -> NULL(), 

    UART1$Deinitialize	PTR FTN()void  size(2) Largest target is 1
		 -> EUSART_Deinitialize(), 

    UART1$ErrorGet	PTR FTN()unsigned int  size(2) Largest target is 2
		 -> EUSART_ErrorGet(), 

    UART1$EventCallbackRegister	PTR FTN(PTR FTN()void ,)void  size(2) Largest target is 1
		 -> NULL(), 

    UART1$FramingErrorCallbackRegister	PTR FTN(PTR FTN()void ,)void  size(2) Largest target is 1
		 -> EUSART_FramingErrorCallbackRegister(), 

    UART1$Initialize	PTR FTN()void  size(2) Largest target is 1
		 -> EUSART_Initialize(), 

    UART1$IsRxReady	PTR FTN()_Bool  size(2) Largest target is 1
		 -> EUSART_IsRxReady(), 

    UART1$IsTxDone	PTR FTN()_Bool  size(2) Largest target is 1
		 -> EUSART_IsTxDone(), 

    UART1$IsTxReady	PTR FTN()_Bool  size(2) Largest target is 1
		 -> EUSART_IsTxReady(), 

    UART1$OverrunErrorCallbackRegister	PTR FTN(PTR FTN()void ,)void  size(2) Largest target is 1
		 -> EUSART_OverrunErrorCallbackRegister(), 

    UART1$ParityErrorCallbackRegister	PTR FTN(PTR FTN()void ,)void  size(2) Largest target is 1
		 -> NULL(), 

    UART1$Read	PTR FTN()unsigned char  size(2) Largest target is 1
		 -> EUSART_Read(), 

    UART1$RxCompleteCallbackRegister	PTR FTN(PTR FTN()void ,)void  size(2) Largest target is 1
		 -> NULL(), 

    UART1$TransmitDisable	PTR FTN()void  size(2) Largest target is 1
		 -> EUSART_TransmitDisable(), 

    UART1$TransmitEnable	PTR FTN()void  size(2) Largest target is 1
		 -> EUSART_TransmitEnable(), 

    UART1$TxCollisionCallbackRegister	PTR FTN(PTR FTN()void ,)void  size(2) Largest target is 1
		 -> NULL(), 

    UART1$TxCompleteCallbackRegister	PTR FTN(PTR FTN()void ,)void  size(2) Largest target is 1
		 -> NULL(), 

    UART1$Write	PTR FTN(unsigned char ,)void  size(2) Largest target is 1
		 -> EUSART_Write(), 

    vfpfcnvrt@ap	PTR PTR void  size(1) Largest target is 1
		 -> printf@ap(BANK0[1]), 

    vfpfcnvrt@fmt	PTR PTR unsigned char  size(1) Largest target is 2
		 -> vfprintf@cfmt(COMMON[2]), 

    vfpfcnvrt@fp	PTR struct _IO_FILE size(2) Largest target is 0
		 -> NULL(NULL[0]), 

    vfprintf@ap	PTR PTR void  size(1) Largest target is 1
		 -> printf@ap(BANK0[1]), 

    vfprintf@cfmt	PTR unsigned char  size(2) Largest target is 24
		 -> STR_1(CODE[24]), 

    vfprintf@fmt	PTR const unsigned char  size(2) Largest target is 24
		 -> STR_1(CODE[24]), 

    vfprintf@fp	PTR struct _IO_FILE size(2) Largest target is 0
		 -> NULL(NULL[0]), 


Critical Paths under _main in COMMON

    _printf->_vfprintf
    _vfpfcnvrt->_fputc
    _fputc->_putch
    _putch->_EUSART_IsTxReady
    _putch->_EUSART_Write
    _INTERRUPT_Initialize->_INT_SetInterruptHandler
    _EUSART_Initialize->_EUSART_FramingErrorCallbackRegister
    _EUSART_Initialize->_EUSART_OverrunErrorCallbackRegister

Critical Paths under _INTERRUPT_InterruptManager in COMMON

    None.

Critical Paths under _main in BANK0

    _main->_printf
    _printf->_vfprintf
    _vfprintf->_vfpfcnvrt

Critical Paths under _INTERRUPT_InterruptManager in BANK0

    None.

Critical Paths under _main in BANK1

    None.

Critical Paths under _INTERRUPT_InterruptManager in BANK1

    None.

Critical Paths under _main in BANK2

    None.

Critical Paths under _INTERRUPT_InterruptManager in BANK2

    None.

Critical Paths under _main in BANK3

    None.

Critical Paths under _INTERRUPT_InterruptManager in BANK3

    None.

Critical Paths under _main in BANK4

    None.

Critical Paths under _INTERRUPT_InterruptManager in BANK4

    None.

Critical Paths under _main in BANK5

    None.

Critical Paths under _INTERRUPT_InterruptManager in BANK5

    None.

Critical Paths under _main in BANK6

    None.

Critical Paths under _INTERRUPT_InterruptManager in BANK6

    None.

Critical Paths under _main in BANK7

    None.

Critical Paths under _INTERRUPT_InterruptManager in BANK7

    None.

Critical Paths under _main in BANK8

    None.

Critical Paths under _INTERRUPT_InterruptManager in BANK8

    None.

Critical Paths under _main in BANK9

    None.

Critical Paths under _INTERRUPT_InterruptManager in BANK9

    None.

Critical Paths under _main in BANK10

    None.

Critical Paths under _INTERRUPT_InterruptManager in BANK10

    None.

Critical Paths under _main in BANK11

    None.

Critical Paths under _INTERRUPT_InterruptManager in BANK11

    None.

Critical Paths under _main in BANK12

    None.

Critical Paths under _INTERRUPT_InterruptManager in BANK12

    None.

Critical Paths under _main in BANK13

    None.

Critical Paths under _INTERRUPT_InterruptManager in BANK13

    None.

Critical Paths under _main in BANK14

    None.

Critical Paths under _INTERRUPT_InterruptManager in BANK14

    None.

Critical Paths under _main in BANK15

    None.

Critical Paths under _INTERRUPT_InterruptManager in BANK15

    None.

Critical Paths under _main in BANK16

    None.

Critical Paths under _INTERRUPT_InterruptManager in BANK16

    None.

Critical Paths under _main in BANK17

    None.

Critical Paths under _INTERRUPT_InterruptManager in BANK17

    None.

Critical Paths under _main in BANK18

    None.

Critical Paths under _INTERRUPT_InterruptManager in BANK18

    None.

Critical Paths under _main in BANK19

    None.

Critical Paths under _INTERRUPT_InterruptManager in BANK19

    None.

Critical Paths under _main in BANK20

    None.

Critical Paths under _INTERRUPT_InterruptManager in BANK20

    None.

Critical Paths under _main in BANK21

    None.

Critical Paths under _INTERRUPT_InterruptManager in BANK21

    None.

Critical Paths under _main in BANK22

    None.

Critical Paths under _INTERRUPT_InterruptManager in BANK22

    None.

Critical Paths under _main in BANK23

    None.

Critical Paths under _INTERRUPT_InterruptManager in BANK23

    None.

Critical Paths under _main in BANK24

    None.

Critical Paths under _INTERRUPT_InterruptManager in BANK24

    None.

Critical Paths under _main in BANK25

    None.

Critical Paths under _INTERRUPT_InterruptManager in BANK25

    None.

Call Graph Tables:

 ---------------------------------------------------------------------------------
 (Depth) Function   	        Calls       Base Space   Used Autos Params    Refs
 ---------------------------------------------------------------------------------
 (0) _main                                                 0     0      0    1947
                  _SYSTEM_Initialize
                             _printf
 ---------------------------------------------------------------------------------
 (1) _printf                                               5     3      2    1609
                                             13 BANK0      3     1      2
                           _vfprintf
 ---------------------------------------------------------------------------------
 (2) _vfprintf                                             8     3      5    1481
                                             11 COMMON     3     3      0
                                              8 BANK0      5     0      5
                          _vfpfcnvrt
 ---------------------------------------------------------------------------------
 (3) _vfpfcnvrt                                           12     8      4    1134
                                              0 BANK0      8     4      4
                              _fputc
 ---------------------------------------------------------------------------------
 (4) _fputc                                                9     5      4     774
                                              2 COMMON     9     5      4
                              _putch
 ---------------------------------------------------------------------------------
 (5) _putch                                                1     1      0     144
                                              1 COMMON     1     1      0
                   _EUSART_IsTxReady
                       _EUSART_Write
 ---------------------------------------------------------------------------------
 (6) _EUSART_Write                                         1     0      1      98
                                              0 COMMON     1     0      1
 ---------------------------------------------------------------------------------
 (6) _EUSART_IsTxReady                                     1     1      0      24
                                              0 COMMON     1     1      0
 ---------------------------------------------------------------------------------
 (1) _SYSTEM_Initialize                                    0     0      0     338
                   _CLOCK_Initialize
                  _EUSART_Initialize
               _INTERRUPT_Initialize
             _PIN_MANAGER_Initialize
 ---------------------------------------------------------------------------------
 (2) _PIN_MANAGER_Initialize                               0     0      0       0
 ---------------------------------------------------------------------------------
 (2) _INTERRUPT_Initialize                                 0     0      0      98
            _INT_SetInterruptHandler
 ---------------------------------------------------------------------------------
 (3) _INT_SetInterruptHandler                              2     0      2      98
                                              0 COMMON     2     0      2
 ---------------------------------------------------------------------------------
 (2) _EUSART_Initialize                                    0     0      0     240
_EUSART_FramingErrorCallbackRegister
_EUSART_OverrunErrorCallbackRegister
 ---------------------------------------------------------------------------------
 (3) _EUSART_OverrunErrorCallbackRegister                  2     0      2     120
                                              0 COMMON     2     0      2
 ---------------------------------------------------------------------------------
 (3) _EUSART_FramingErrorCallbackRegister                  2     0      2     120
                                              0 COMMON     2     0      2
 ---------------------------------------------------------------------------------
 (2) _CLOCK_Initialize                                     0     0      0       0
 ---------------------------------------------------------------------------------
 Estimated maximum stack depth 6
 ---------------------------------------------------------------------------------
 (Depth) Function   	        Calls       Base Space   Used Autos Params    Refs
 ---------------------------------------------------------------------------------
 (7) _INTERRUPT_InterruptManager                           0     0      0       0
                    _PIN_MANAGER_IOC
 ---------------------------------------------------------------------------------
 (8) _PIN_MANAGER_IOC                                      0     0      0       0
 ---------------------------------------------------------------------------------
 Estimated maximum stack depth 8
 ---------------------------------------------------------------------------------

 Call Graph Graphs:

 _main (ROOT)
   _SYSTEM_Initialize
     _CLOCK_Initialize
     _EUSART_Initialize
       _EUSART_FramingErrorCallbackRegister
       _EUSART_OverrunErrorCallbackRegister
     _INTERRUPT_Initialize
       _INT_SetInterruptHandler
     _PIN_MANAGER_Initialize
   _printf
     _vfprintf
       _vfpfcnvrt
         _fputc
           _putch
             _EUSART_IsTxReady
             _EUSART_Write

 _INTERRUPT_InterruptManager (ROOT)
   _PIN_MANAGER_IOC

 Address spaces:
Name               Size   Autos  Total    Cost      Usage
BIGRAM             7F0      0       0       0        0.0%
EEDATA             100      0       0       0        0.0%
NULL                 0      0       0       0        0.0%
CODE                 0      0       0       0        0.0%
BITCOMMON            E      0       0       1        0.0%
BITSFR0              0      0       0       1        0.0%
SFR0                 0      0       0       1        0.0%
COMMON               E      E       E       2      100.0%
BITSFR1              0      0       0       2        0.0%
SFR1                 0      0       0       2        0.0%
BITSFR2              0      0       0       3        0.0%
SFR2                 0      0       0       3        0.0%
STACK                0      0       0       3        0.0%
BITBANK0            50      0       0       4        0.0%
BITSFR3              0      0       0       4        0.0%
SFR3                 0      0       0       4        0.0%
BANK0               50     10      3D       5       76.2%
BITSFR4              0      0       0       5        0.0%
SFR4                 0      0       0       5        0.0%
BITBANK1            50      0       0       6        0.0%
BITSFR5              0      0       0       6        0.0%
SFR5                 0      0       0       6        0.0%
BANK1               50      0       0       7        0.0%
BITSFR6              0      0       0       7        0.0%
SFR6                 0      0       0       7        0.0%
BITBANK2            50      0       0       8        0.0%
BITSFR7              0      0       0       8        0.0%
SFR7                 0      0       0       8        0.0%
BANK2               50      0       0       9        0.0%
BITSFR8              0      0       0       9        0.0%
SFR8                 0      0       0       9        0.0%
BITBANK3            50      0       0      10        0.0%
BITSFR9              0      0       0      10        0.0%
SFR9                 0      0       0      10        0.0%
BANK3               50      0       0      11        0.0%
BITSFR10             0      0       0      11        0.0%
SFR10                0      0       0      11        0.0%
BITBANK4            50      0       0      12        0.0%
BITSFR11             0      0       0      12        0.0%
SFR11                0      0       0      12        0.0%
BANK4               50      0       0      13        0.0%
BITSFR12             0      0       0      13        0.0%
SFR12                0      0       0      13        0.0%
BITSFR13             0      0       0      14        0.0%
SFR13                0      0       0      14        0.0%
ABS                  0      0      4B      14        0.0%
BITBANK5            50      0       0      15        0.0%
BITSFR14             0      0       0      15        0.0%
SFR14                0      0       0      15        0.0%
BANK5               50      0       0      16        0.0%
BITSFR15             0      0       0      16        0.0%
SFR15                0      0       0      16        0.0%
BITBANK6            50      0       0      17        0.0%
BITSFR16             0      0       0      17        0.0%
SFR16                0      0       0      17        0.0%
BANK6               50      0       0      18        0.0%
BITSFR17             0      0       0      18        0.0%
SFR17                0      0       0      18        0.0%
BITBANK7            50      0       0      19        0.0%
BITSFR18             0      0       0      19        0.0%
SFR18                0      0       0      19        0.0%
BANK7               50      0       0      20        0.0%
BITSFR19             0      0       0      20        0.0%
SFR19                0      0       0      20        0.0%
BITBANK8            50      0       0      21        0.0%
BITSFR20             0      0       0      21        0.0%
SFR20                0      0       0      21        0.0%
BANK8               50      0       0      22        0.0%
BITSFR21             0      0       0      22        0.0%
SFR21                0      0       0      22        0.0%
BITBANK9            50      0       0      23        0.0%
BITSFR22             0      0       0      23        0.0%
SFR22                0      0       0      23        0.0%
BANK9               50      0       0      24        0.0%
BITSFR23             0      0       0      24        0.0%
SFR23                0      0       0      24        0.0%
BITBANK10           50      0       0      25        0.0%
BITSFR24             0      0       0      25        0.0%
SFR24                0      0       0      25        0.0%
BANK10              50      0       0      26        0.0%
BITSFR25             0      0       0      26        0.0%
SFR25                0      0       0      26        0.0%
BITBANK11           50      0       0      27        0.0%
BITSFR26             0      0       0      27        0.0%
SFR26                0      0       0      27        0.0%
BITSFR27             0      0       0      28        0.0%
SFR27                0      0       0      28        0.0%
DATA                 0      0      4B      28        0.0%
BANK11              50      0       0      29        0.0%
BITSFR28             0      0       0      29        0.0%
SFR28                0      0       0      29        0.0%
BITBANK12           50      0       0      30        0.0%
BITSFR29             0      0       0      30        0.0%
SFR29                0      0       0      30        0.0%
BANK12              50      0       0      31        0.0%
BITSFR30             0      0       0      31        0.0%
SFR30                0      0       0      31        0.0%
BITBANK13           50      0       0      32        0.0%
BITSFR31             0      0       0      32        0.0%
SFR31                0      0       0      32        0.0%
BANK13              50      0       0      33        0.0%
BITBANK14           50      0       0      34        0.0%
BANK14              50      0       0      35        0.0%
BITBANK15           50      0       0      36        0.0%
BANK15              50      0       0      37        0.0%
BITBANK16           50      0       0      38        0.0%
BANK16              50      0       0      39        0.0%
BITBANK17           50      0       0      40        0.0%
BANK17              50      0       0      41        0.0%
BITBANK18           50      0       0      42        0.0%
BANK18              50      0       0      43        0.0%
BITBANK19           50      0       0      44        0.0%
BANK19              50      0       0      45        0.0%
BITBANK20           50      0       0      46        0.0%
BANK20              50      0       0      47        0.0%
BITBANK21           50      0       0      48        0.0%
BANK21              50      0       0      49        0.0%
BITBANK22           50      0       0      50        0.0%
BANK22              50      0       0      51        0.0%
BITBANK23           50      0       0      52        0.0%
BANK23              50      0       0      53        0.0%
BITBANK24           50      0       0      54        0.0%
BANK24              50      0       0      55        0.0%
BITBANK25           20      0       0      56        0.0%
BANK25              20      0       0      57        0.0%


Microchip Technology PIC Macro Assembler V2.45 build 20230818022343 
Symbol Table                                                                                   Sat Nov 04 10:45:54 2023

                                                l11 01CE                                                  l24 01FA  
                                                l43 01F1                                                  l60 0206  
       __end_of_EUSART_OverrunErrorCallbackRegister 01DB               ??_EUSART_OverrunErrorCallbackRegister 0072  
              ?_EUSART_OverrunErrorCallbackRegister 0070                 _EUSART_OverrunErrorCallbackRegister 01CF  
                                               l210 0185                                                 l130 014A  
                                               l301 01DA                                                 l142 01BF  
                                               l143 01BF                                                 l259 01B3  
                                               l275 020A                                                 l287 01A4  
                                               l297 01E6                                                 l916 0195  
                                               l945 0169                                                 l939 00C9  
                                               l957 007F                                                 u210 01AB  
                                               u211 01AA                                                 u220 01B0  
                                               u300 0092                                                 u221 01AF  
                                               u301 0091                                                 u230 019F  
                                               u310 0166                                                 u231 019E  
                                               u311 0165                                                 u240 0029  
                                               u241 0028                                                 u250 002F  
                                               u251 002E                                                 u260 003F  
                                               u261 003E                                                 u270 005F  
                                               u271 005E                                                 u280 01E1  
                                               u281 01E0                                                 u290 01D5  
                                               u291 01D4                                                 u275 005B  
                                               wreg 0009                                        _BAUD1CONbits 019F  
                                              l1033 01F2                                                l1041 0112  
                                              l1201 01B0                                                l1035 01F5  
                                              l1051 0120                                                l1043 0116  
                                              l1203 01B2                                                l1211 0197  
                                              l1037 01F6                                                l1061 0133  
                                              l1053 0122                                                l1045 0119  
                                              l1213 019F                                                l1221 002F  
                                              l1039 01F9                                                l1063 0136  
                                              l1055 012C                                                l1047 011B  
                                              l1207 0207                                                l1223 0034  
                                              l1241 01D5                                                l1233 0201  
                                              l1065 0138                                                l1057 012F  
                                              l1049 011D                                                l1209 0197  
                                              l1225 003F                                                l1217 0023  
                                              l1235 01DB                                                l1067 013A  
                                              l1059 0131                                                l1227 005F  
                                              l1219 0029                                                l1251 00A5  
                                              l1243 0080                                                l1323 01B4  
                                              l1237 01E1                                                l1261 016A  
                                              l1069 013D                                                l1229 0075  
                                              l1245 0092                                                l1325 01B7  
                                              l1239 01CF                                                l1263 0173  
                                              l1271 01E7                                                l1247 009A  
                                              l1255 00AF                                                l1265 0174  
                                              l1273 01EA                                                l1249 00A1  
                                              l1281 0166                                                l1267 017B  
                                              l1195 01A5                                                l1275 014B  
                                              l1269 0182                                                l1285 01C2  
                                              l1197 01A6                                                l1277 0151  
                                              l1199 01AB                                                l1279 015D  
                                              l1287 0186                                                l1289 0189  
                                              STR_1 00FA                                                _LATA 010C  
                                              _LATB 010D                                                _LATC 010E  
                                              i1l50 0013                                                _WPUA 020C  
                                              _WPUB 020D                                                _WPUC 020E  
                                              _dbuf 0020                                                _main 01B4  
                                              _prec 0042                                                fsr0h 0005  
                                              fsr1h 0007                                                indf0 0000  
                                              fsr0l 0004                                                indf1 0001  
                                              fsr1l 0006                                                btemp 007E  
                       _INT_DefaultInterruptHandler 0000                                                start 0015  
                _EUSART_DefaultOverrunErrorCallback 0000                     __end_of_INT_SetInterruptHandler 0207  
                                     ?_EUSART_Write 0070                                               ?_main 0070  
                                             _IOCAF 0393                                               _IOCBF 0396  
                                             _IOCCF 0399                                               _IOCAN 0392  
                                             _IOCAP 0391                                               _IOCBN 0395  
                                             _IOCBP 0394                                               _IOCCN 0398  
                                             _IOCCP 0397                                               i1l133 020B  
                                             _OSCEN 091D                                               _UART1 00CA  
                                      vfpfcnvrt@fmt 004F                                               u16_20 000B  
                                             u16_21 000A                                               u17_20 0010  
                                             u17_21 000F                                               _TRISA 008C  
                                             _TRISB 008D                                               _TRISC 008E  
                                             _RXPPS 0E24                             __end_of_PIN_MANAGER_IOC 020C  
                                             _flags 004C                                               _fputc 0023  
                                             _width 0040                                               _putch 0196  
                                             status 0003                                               wtemp0 007E  
                                   __initialization 0017                                        __end_of_main 01C2  
                                    ??_EUSART_Write 0071                         ?_INTERRUPT_InterruptManager 0070  
                                            ??_main 007E  EUSART_OverrunErrorCallbackRegister@callbackHandler 0070  
EUSART_FramingErrorCallbackRegister@callbackHandler 0070                          _EUSART_OverrunErrorHandler 0044  
                                            ?_fputc 0072                                              _ANSELA 018C  
                                            ?_putch 0070                                              _ANSELB 018D  
                                            _ANSELC 018E                                              _RC1REG 0199  
                                            _RC1STA 019D                                              _RB4PPS 0E9C  
                                            i1l1131 000B                                              i1l1133 0010  
                                            i1l1129 0006                                              _ODCONA 028C  
                                            _ODCONB 028D                                              _ODCONC 028E  
                                            _INLVLA 038C                                              _INLVLB 038D  
                                            _INLVLC 038E                                              _OSCFRQ 091F  
                                            _TX1REG 019A                                              _TX1STA 019E  
                                      vfprintf@cfmt 007C                                   ?_EUSART_IsTxReady 0070  
                                            _printf 0186                                   ?_CLOCK_Initialize 0070  
                                            fputc@c 0072                                  ??_EUSART_IsTxReady 0070  
                                ??_CLOCK_Initialize 0070                                    __end_of_vfprintf 016A  
           INT_SetInterruptHandler@InterruptHandler 0070                                    ?_PIN_MANAGER_IOC 0070  
                                 _SYSTEM_Initialize 01C2                             __end_of__initialization 001F  
                                ?_SYSTEM_Initialize 0070                                       __end_of_UART1 00FA  
                                    __pcstackCOMMON 0070                                 ??_SYSTEM_Initialize 0072  
                                     __end_of_fputc 0080                                       __end_of_putch 01A5  
                                           ??_fputc 0076                           __end_of_SYSTEM_Initialize 01CF  
                                           ??_putch 0071                                          __pbssBANK0 0020  
                              __end_of_EUSART_Write 020B                                          __pmaintext 01B4  
                                        __pintentry 0004                                _EUSART_AutoBaudQuery 0000  
                                           ?_printf 005A                                     _EUSART_IsTxDone 0000  
                                   _EUSART_ErrorGet 0000                                             _SP1BRGH 019C  
                                           _SP1BRGL 019B                                             _OSCCON1 0919  
                                           _OSCCON3 091B                                             _OSCTUNE 091E  
                                           _SLRCONA 030C                                             _SLRCONB 030D  
                                           _SLRCONC 030E                                _EUSART_IsTxReady$573 0070  
                                         ?_vfprintf 0055                                             __ptext1 0186  
                                           __ptext2 014B                                             __ptext3 0080  
                                           __ptext4 0023                                             __ptext5 0196  
                                           __ptext6 0207                                             __ptext7 01A5  
                                           __ptext8 01C2                                             __ptext9 0112  
                          ??_PIN_MANAGER_Initialize 0070                             _INT_SetInterruptHandler 0201  
                                           clrloop0 01FC                                end_of_initialization 001F  
                                           fputc@fp 0074                                   _EUSART_Initialize 016A  
                                ?_EUSART_Initialize 0070                                   __end_of_vfpfcnvrt 00CA  
                                        ??_vfprintf 007B                                 ??_EUSART_Initialize 0072  
                               _EUSART_Deinitialize 0000                           __end_of_EUSART_Initialize 0186  
                      __end_of_INTERRUPT_Initialize 01F2                                         vfpfcnvrt@ap 0050  
                                       vfpfcnvrt@fp 004D                                        _EUSART_Write 0207  
                         ??_INT_SetInterruptHandler 0072                                      __end_of_printf 0196  
                               start_initialization 0017                                         putch@txData 0071  
                                       vfprintf@fmt 0057                          _EUSART_FramingErrorHandler 0046  
                                          ??_printf 007E                                           ___latbits 0003  
                                     __pcstackBANK0 004D                              _PIN_MANAGER_Initialize 0112  
                      ??_INTERRUPT_InterruptManager 0070                                            _BAUD1CON 019F  
                            _EUSART_TransmitDisable 0000                                    _EUSART_IsRxReady 0000  
                              _INTERRUPT_Initialize 01E7                                    _EUSART_IsTxReady 01A5  
                                  _CLOCK_Initialize 01F2                                           clear_ram0 01FB  
                                          _PIE0bits 0090                                   _eusartRxLastError 0048  
                                          _PIR0bits 0010                                            _PIR1bits 0011  
                                 ??_PIN_MANAGER_IOC 0070                                           _vfpfcnvrt 0080  
                                       _EUSART_Read 0000                               ?_INTERRUPT_Initialize 0070  
                                        vfprintf@ap 0059                                          vfprintf@fp 0055  
                                        ?_vfpfcnvrt 004D                                  _EUSART_AutoBaudSet 0000  
                                          __ptext10 01E7                                            __ptext11 0201  
                                          __ptext12 016A                                            __ptext13 01CF  
                                          __ptext14 01DB                                            __ptext15 01F2  
                                          __ptext17 020B                               _EUSART_TransmitEnable 0000  
                                        _RC1STAbits 019D                                            int$flags 007E  
                                          _vfprintf 014B                  __end_of_INTERRUPT_InterruptManager 0015  
                        _INTERRUPT_InterruptManager 0004         __end_of_EUSART_FramingErrorCallbackRegister 01E7  
             ??_EUSART_FramingErrorCallbackRegister 0072                ?_EUSART_FramingErrorCallbackRegister 0070  
               _EUSART_FramingErrorCallbackRegister 01DB                                           printf@fmt 005A  
                                        _INTCONbits 000B                                _INT_InterruptHandler 004A  
                            ??_INTERRUPT_Initialize 0072                                            intlevel1 0000  
                           ?_PIN_MANAGER_Initialize 0070                  _EUSART_DefaultFramingErrorCallback 0000  
                                          printf@ap 005C                            ?_INT_SetInterruptHandler 0070  
                                       ??_vfpfcnvrt 0051                            __end_of_EUSART_IsTxReady 01B4  
                          __end_of_CLOCK_Initialize 01FB                                       __pstringtext1 00CA  
                                     __pstringtext2 0000                                          _TX1STAbits 019E  
                                EUSART_Write@txData 0070                      __end_of_PIN_MANAGER_Initialize 014B  
                                   _PIN_MANAGER_IOC 020B  
